
main.elf:     file format elf32-littlearm
architecture: arm, flags 0x00000012:
EXEC_P, HAS_SYMS
start address 0x00001900

Sections:
Idx Name          Size      VMA       LMA       File off  Algn
  0 .text         00000104  00001900  00001900  00000054  2**2
                  CONTENTS, ALLOC, LOAD, CODE
  1 .data         00022634  00001a04  00001a04  00000158  2**0
                  CONTENTS, ALLOC, LOAD, DATA
  2 .bss          00000008  00024038  00024038  0002278c  2**0
                  ALLOC

Disassembly of section .text:

00001900 <_start>:
    1900:	e3a03902 	mov	r3, #32768	; 0x8000
    1904:	e2433001 	sub	r3, r3, #1
    1908:	e3530000 	cmp	r3, #0
    190c:	1afffffc 	bne	1904 <_start+0x4>
    1910:	e3a0dc19 	mov	sp, #6400	; 0x1900
    1914:	e3a0b000 	mov	fp, #0
    1918:	eaffffff 	b	191c <my_restart>

0000191c <my_restart>:
    191c:	e52de004 	push	{lr}		; (str lr, [sp, #-4]!)
    1920:	e59f30c0 	ldr	r3, [pc, #192]	; 19e8 <my_restart+0xcc>
    1924:	e5932000 	ldr	r2, [r3]
    1928:	e59f30bc 	ldr	r3, [pc, #188]	; 19ec <my_restart+0xd0>
    192c:	e5933000 	ldr	r3, [r3]
    1930:	e2833003 	add	r3, r3, #3
    1934:	e1a03143 	asr	r3, r3, #2
    1938:	e59f10b0 	ldr	r1, [pc, #176]	; 19f0 <my_restart+0xd4>
    193c:	e1520001 	cmp	r2, r1
    1940:	9a000001 	bls	194c <my_restart+0x30>
    1944:	e59f10a8 	ldr	r1, [pc, #168]	; 19f4 <my_restart+0xd8>
    1948:	ea000011 	b	1994 <my_restart+0x78>
    194c:	e1a00103 	lsl	r0, r3, #2
    1950:	e082c000 	add	ip, r2, r0
    1954:	e59f1098 	ldr	r1, [pc, #152]	; 19f4 <my_restart+0xd8>
    1958:	e15c0001 	cmp	ip, r1
    195c:	80801001 	addhi	r1, r0, r1
    1960:	83a02000 	movhi	r2, #0
    1964:	8a000005 	bhi	1980 <my_restart+0x64>
    1968:	eafffff5 	b	1944 <my_restart+0x28>
    196c:	e08c0002 	add	r0, ip, r2
    1970:	e510e004 	ldr	lr, [r0, #-4]
    1974:	e0810002 	add	r0, r1, r2
    1978:	e500e004 	str	lr, [r0, #-4]
    197c:	e2422004 	sub	r2, r2, #4
    1980:	e2533001 	subs	r3, r3, #1
    1984:	2afffff8 	bcs	196c <my_restart+0x50>
    1988:	ea000003 	b	199c <my_restart+0x80>
    198c:	e4920004 	ldr	r0, [r2], #4
    1990:	e4810004 	str	r0, [r1], #4
    1994:	e2533001 	subs	r3, r3, #1
    1998:	2afffffb 	bcs	198c <my_restart+0x70>
    199c:	e59fc050 	ldr	ip, [pc, #80]	; 19f4 <my_restart+0xd8>
    19a0:	e3a00078 	mov	r0, #120	; 0x78
    19a4:	ee010f10 	mcr	15, 0, r0, cr1, cr0, {0}
    19a8:	e3a00000 	mov	r0, #0
    19ac:	ee070f9a 	mcr	15, 0, r0, cr7, cr10, {4}
    19b0:	ee070f15 	mcr	15, 0, r0, cr7, cr5, {0}
    19b4:	ee070f16 	mcr	15, 0, r0, cr7, cr6, {0}
    19b8:	e3a0011a 	mov	r0, #-2147483642	; 0x80000006
    19bc:	ee090f11 	mcr	15, 0, r0, cr9, cr1, {0}
    19c0:	ee090f31 	mcr	15, 0, r0, cr9, cr1, {1}
    19c4:	ee110f10 	mrc	15, 0, r0, cr1, cr0, {0}
    19c8:	e3800805 	orr	r0, r0, #327680	; 0x50000
    19cc:	ee010f10 	mcr	15, 0, r0, cr1, cr0, {0}
    19d0:	e59f0020 	ldr	r0, [pc, #32]	; 19f8 <my_restart+0xdc>
    19d4:	e3a01102 	mov	r1, #-2147483648	; 0x80000000
    19d8:	e5810ffc 	str	r0, [r1, #4092]	; 0xffc
    19dc:	e1a0000c 	mov	r0, ip
    19e0:	e12fff10 	bx	r0
    19e4:	eafffffe 	b	19e4 <my_restart+0xc8>
    19e8:	00001a00 	.word	0x00001a00
    19ec:	000019fc 	.word	0x000019fc
    19f0:	00185caf 	.word	0x00185caf
    19f4:	00185cb0 	.word	0x00185cb0
    19f8:	12345678 	.word	0x12345678

000019fc <blob_chdk_core_size>:
    19fc:	00022634 	.word	0x00022634

00001a00 <blob_chdk_core>:
    1a00:	00001a04 	.word	0x00001a04
