
main.elf:     file format elf32-littlearm
architecture: arm, flags 0x00000012:
EXEC_P, HAS_SYMS
start address 0x00185cb0

Sections:
Idx Name          Size      VMA       LMA       File off  Algn
  0 .text         00016640  00185cb0  00185cb0  00000058  2**3
                  CONTENTS, ALLOC, LOAD, CODE
  2 .data         0000bef4  0019c3f0  0019c3f0  00016798  2**2
                  CONTENTS, ALLOC, LOAD, DATA
  3 .bss          0000174c  001a82e4  001a82e4  0002268c  2**2
                  ALLOC

Disassembly of section .text:

00185cb0 <_start>:
  185cb0:	e3a00002 	mov	r0, #2
  185cb4:	e3300002 	teq	r0, #2
  185cb8:	e3a0dc19 	mov	sp, #6400	; 0x1900
  185cbc:	e3a0b000 	mov	fp, #0
  185cc0:	eaffffff 	b	185cc4 <startup>

00185cc4 <startup>:
  185cc4:	e52de004 	push	{lr}		; (str lr, [sp, #-4]!)
  185cc8:	e59f3044 	ldr	r3, [pc, #68]	; 185d14 <startup+0x50>
  185ccc:	e59f2044 	ldr	r2, [pc, #68]	; 185d18 <startup+0x54>
  185cd0:	e59f1044 	ldr	r1, [pc, #68]	; 185d1c <startup+0x58>
  185cd4:	e0622001 	rsb	r2, r2, r1
  185cd8:	e1520003 	cmp	r2, r3
  185cdc:	e1a01003 	mov	r1, r3
  185ce0:	aa000004 	bge	185cf8 <startup+0x34>
  185ce4:	e3a00001 	mov	r0, #1
  185ce8:	eb00002b 	bl	185d9c <debug_led>
  185cec:	eb000034 	bl	185dc4 <shutdown>
  185cf0:	e4832004 	str	r2, [r3], #4
  185cf4:	ea000001 	b	185d00 <startup+0x3c>
  185cf8:	e59f3020 	ldr	r3, [pc, #32]	; 185d20 <startup+0x5c>
  185cfc:	e3a02000 	mov	r2, #0
  185d00:	e1530001 	cmp	r3, r1
  185d04:	3afffff9 	bcc	185cf0 <startup+0x2c>
  185d08:	eb00008e 	bl	185f48 <boot>
  185d0c:	e49de004 	pop	{lr}		; (ldr lr, [sp], #4)
  185d10:	e12fff1e 	bx	lr
  185d14:	001a9a30 	.word	0x001a9a30
  185d18:	00185cb0 	.word	0x00185cb0
  185d1c:	0032f6e0 	.word	0x0032f6e0
  185d20:	001a82e4 	.word	0x001a82e4

00185d24 <get_focal_length>:
  185d24:	e3500064 	cmp	r0, #100	; 0x64
  185d28:	a3a00064 	movge	r0, #100	; 0x64
  185d2c:	e1c00fc0 	bic	r0, r0, r0, asr #31
  185d30:	e59f3004 	ldr	r3, [pc, #4]	; 185d3c <get_focal_length+0x18>
  185d34:	e7930180 	ldr	r0, [r3, r0, lsl #3]
  185d38:	e12fff1e 	bx	lr
  185d3c:	ffffae7c 	.word	0xffffae7c

00185d40 <get_effective_focal_length>:
  185d40:	e52de004 	push	{lr}		; (str lr, [sp, #-4]!)
  185d44:	ebfffff6 	bl	185d24 <get_focal_length>
  185d48:	e3a03e15 	mov	r3, #336	; 0x150
  185d4c:	e0000093 	mul	r0, r3, r0
  185d50:	e3a0103c 	mov	r1, #60	; 0x3c
  185d54:	eb004c5c 	bl	198ecc <__aeabi_idiv>
  185d58:	e49de004 	pop	{lr}		; (ldr lr, [sp], #4)
  185d5c:	e12fff1e 	bx	lr

00185d60 <get_zoom_x>:
  185d60:	e52de004 	push	{lr}		; (str lr, [sp, #-4]!)
  185d64:	ebffffee 	bl	185d24 <get_focal_length>
  185d68:	e3a0300a 	mov	r3, #10
  185d6c:	e0000093 	mul	r0, r3, r0
  185d70:	e59f300c 	ldr	r3, [pc, #12]	; 185d84 <get_zoom_x+0x24>
  185d74:	e5931000 	ldr	r1, [r3]
  185d78:	eb004c53 	bl	198ecc <__aeabi_idiv>
  185d7c:	e49de004 	pop	{lr}		; (ldr lr, [sp], #4)
  185d80:	e12fff1e 	bx	lr
  185d84:	ffffae7c 	.word	0xffffae7c

00185d88 <get_vbatt_min>:
  185d88:	e59f0000 	ldr	r0, [pc, #0]	; 185d90 <get_vbatt_min+0x8>
  185d8c:	e12fff1e 	bx	lr
  185d90:	00000cb2 	.word	0x00000cb2

00185d94 <get_vbatt_max>:
  185d94:	e3a00efa 	mov	r0, #4000	; 0xfa0
  185d98:	e12fff1e 	bx	lr

00185d9c <debug_led>:
  185d9c:	e59f3014 	ldr	r3, [pc, #20]	; 185db8 <debug_led+0x1c>
  185da0:	e59f2014 	ldr	r2, [pc, #20]	; 185dbc <debug_led+0x20>
  185da4:	e3500000 	cmp	r0, #0
  185da8:	01a03002 	moveq	r3, r2
  185dac:	e59f100c 	ldr	r1, [pc, #12]	; 185dc0 <debug_led+0x24>
  185db0:	e58131fc 	str	r3, [r1, #508]	; 0x1fc
  185db4:	e12fff1e 	bx	lr
  185db8:	0093d800 	.word	0x0093d800
  185dbc:	0083dc00 	.word	0x0083dc00
  185dc0:	c022f000 	.word	0xc022f000

00185dc4 <shutdown>:
  185dc4:	e10f1000 	mrs	r1, CPSR
  185dc8:	e2010080 	and	r0, r1, #128	; 0x80
  185dcc:	e3811080 	orr	r1, r1, #128	; 0x80
  185dd0:	e129f001 	msr	CPSR_fc, r1
  185dd4:	e59f2008 	ldr	r2, [pc, #8]	; 185de4 <shutdown+0x20>
  185dd8:	e59f3008 	ldr	r3, [pc, #8]	; 185de8 <shutdown+0x24>
  185ddc:	e58321fc 	str	r2, [r3, #508]	; 0x1fc
  185de0:	eafffffe 	b	185de0 <shutdown+0x1c>
  185de4:	0083dc00 	.word	0x0083dc00
  185de8:	c022f000 	.word	0xc022f000

00185dec <camera_set_led>:
  185dec:	e52de004 	push	{lr}		; (str lr, [sp, #-4]!)
  185df0:	e3510001 	cmp	r1, #1
  185df4:	ca000005 	bgt	185e10 <camera_set_led+0x24>
  185df8:	e2000001 	and	r0, r0, #1
  185dfc:	e59f3014 	ldr	r3, [pc, #20]	; 185e18 <camera_set_led+0x2c>
  185e00:	e7d30000 	ldrb	r0, [r3, r0]
  185e04:	e2711001 	rsbs	r1, r1, #1
  185e08:	33a01000 	movcc	r1, #0
  185e0c:	eb0003ba 	bl	186cfc <_LEDDrive>
  185e10:	e49de004 	pop	{lr}		; (ldr lr, [sp], #4)
  185e14:	e12fff1e 	bx	lr
  185e18:	0019c3f4 	.word	0x0019c3f4

00185e1c <vid_get_bitmap_fb>:
  185e1c:	e59f0000 	ldr	r0, [pc, #0]	; 185e24 <vid_get_bitmap_fb+0x8>
  185e20:	e12fff1e 	bx	lr
  185e24:	40711000 	.word	0x40711000

00185e28 <vid_get_viewport_fb>:
  185e28:	e59f0000 	ldr	r0, [pc, #0]	; 185e30 <vid_get_viewport_fb+0x8>
  185e2c:	e12fff1e 	bx	lr
  185e30:	40866b80 	.word	0x40866b80

00185e34 <camera_jpeg_count_str>:
  185e34:	e59f0000 	ldr	r0, [pc, #0]	; 185e3c <camera_jpeg_count_str+0x8>
  185e38:	e12fff1e 	bx	lr
  185e3c:	000d7868 	.word	0x000d7868

00185e40 <get_flash_params_count>:
  185e40:	e3a000d4 	mov	r0, #212	; 0xd4
  185e44:	e12fff1e 	bx	lr

00185e48 <vid_get_bitmap_active_buffer>:
  185e48:	e3a03a06 	mov	r3, #24576	; 0x6000
  185e4c:	e593015c 	ldr	r0, [r3, #348]	; 0x15c
  185e50:	e12fff1e 	bx	lr

00185e54 <vid_get_bitmap_active_palette>:
  185e54:	e59f301c 	ldr	r3, [pc, #28]	; 185e78 <vid_get_bitmap_active_palette+0x24>
  185e58:	e5933000 	ldr	r3, [r3]
  185e5c:	e59f2018 	ldr	r2, [pc, #24]	; 185e7c <vid_get_bitmap_active_palette+0x28>
  185e60:	e5922000 	ldr	r2, [r2]
  185e64:	e7930102 	ldr	r0, [r3, r2, lsl #2]
  185e68:	e3500000 	cmp	r0, #0
  185e6c:	05930000 	ldreq	r0, [r3]
  185e70:	e2800004 	add	r0, r0, #4
  185e74:	e12fff1e 	bx	lr
  185e78:	00007c14 	.word	0x00007c14
  185e7c:	00007c10 	.word	0x00007c10

00185e80 <vid_get_palette_type>:
  185e80:	e3a00003 	mov	r0, #3
  185e84:	e12fff1e 	bx	lr

00185e88 <vid_get_palette_size>:
  185e88:	e3a00b01 	mov	r0, #1024	; 0x400
  185e8c:	e12fff1e 	bx	lr

00185e90 <vid_get_bitmap_buffer_height>:
  185e90:	e3a00f5a 	mov	r0, #360	; 0x168
  185e94:	e12fff1e 	bx	lr

00185e98 <vid_get_bitmap_buffer_width>:
  185e98:	e3a00e2d 	mov	r0, #720	; 0x2d0
  185e9c:	e12fff1e 	bx	lr

00185ea0 <vid_get_viewport_fb_d>:
  185ea0:	e59f3004 	ldr	r3, [pc, #4]	; 185eac <vid_get_viewport_fb_d+0xc>
  185ea4:	e5930000 	ldr	r0, [r3]
  185ea8:	e12fff1e 	bx	lr
  185eac:	00003314 	.word	0x00003314

00185eb0 <vid_get_viewport_live_fb>:
  185eb0:	eafffffa 	b	185ea0 <vid_get_viewport_fb_d>

00185eb4 <vid_get_viewport_width>:
  185eb4:	e3a00f5a 	mov	r0, #360	; 0x168
  185eb8:	e12fff1e 	bx	lr

00185ebc <vid_get_viewport_height>:
  185ebc:	e3a000f0 	mov	r0, #240	; 0xf0
  185ec0:	e12fff1e 	bx	lr

00185ec4 <hook_raw_image_addr>:
  185ec4:	e59f0000 	ldr	r0, [pc, #0]	; 185ecc <hook_raw_image_addr+0x8>
  185ec8:	e12fff1e 	bx	lr
  185ecc:	41ff6b60 	.word	0x41ff6b60

00185ed0 <vid_bitmap_refresh>:
  185ed0:	e52de004 	push	{lr}		; (str lr, [sp, #-4]!)
  185ed4:	e59f3018 	ldr	r3, [pc, #24]	; 185ef4 <vid_bitmap_refresh+0x24>
  185ed8:	e5932000 	ldr	r2, [r3]
  185edc:	e3822003 	orr	r2, r2, #3
  185ee0:	e5832000 	str	r2, [r3]
  185ee4:	eb000399 	bl	186d50 <_ScreenLock>
  185ee8:	eb000399 	bl	186d54 <_ScreenUnlock>
  185eec:	e49de004 	pop	{lr}		; (ldr lr, [sp], #4)
  185ef0:	e12fff1e 	bx	lr
  185ef4:	00007c04 	.word	0x00007c04

00185ef8 <vid_get_aspect_ratio>:
  185ef8:	e3a00000 	mov	r0, #0
  185efc:	e12fff1e 	bx	lr

00185f00 <vid_get_viewport_yscale>:
  185f00:	e3a00002 	mov	r0, #2
  185f04:	e12fff1e 	bx	lr

00185f08 <spytask>:
  185f08:	e52de004 	push	{lr}		; (str lr, [sp, #-4]!)
  185f0c:	eb005791 	bl	19bd58 <__core_spytask_from_arm>
  185f10:	e49de004 	pop	{lr}		; (ldr lr, [sp], #4)
  185f14:	e12fff1e 	bx	lr

00185f18 <CreateTask_spytask>:
  185f18:	e92d4001 	push	{r0, lr}
  185f1c:	e3a03000 	mov	r3, #0
  185f20:	e58d3000 	str	r3, [sp]
  185f24:	e59f0014 	ldr	r0, [pc, #20]	; 185f40 <CreateTask_spytask+0x28>
  185f28:	e3a01019 	mov	r1, #25
  185f2c:	e3a02a02 	mov	r2, #8192	; 0x2000
  185f30:	e59f300c 	ldr	r3, [pc, #12]	; 185f44 <CreateTask_spytask+0x2c>
  185f34:	eb00034b 	bl	186c68 <_CreateTask>
  185f38:	e8bd4008 	pop	{r3, lr}
  185f3c:	e12fff1e 	bx	lr
  185f40:	0019c3fc 	.word	0x0019c3fc
  185f44:	00185f08 	.word	0x00185f08

00185f48 <boot>:
  185f48:	e59f15b4 	ldr	r1, [pc, #1460]	; 186504 <init_file_modules_task+0x3c>
  185f4c:	e3a00000 	mov	r0, #0
  185f50:	e5810000 	str	r0, [r1]
  185f54:	e3a01078 	mov	r1, #120	; 0x78
  185f58:	ee011f10 	mcr	15, 0, r1, cr1, cr0, {0}
  185f5c:	e3a01000 	mov	r1, #0
  185f60:	ee071f9a 	mcr	15, 0, r1, cr7, cr10, {4}
  185f64:	ee071f15 	mcr	15, 0, r1, cr7, cr5, {0}
  185f68:	ee071f16 	mcr	15, 0, r1, cr7, cr6, {0}
  185f6c:	e3a0003d 	mov	r0, #61	; 0x3d
  185f70:	ee060f10 	mcr	15, 0, r0, cr6, cr0, {0}
  185f74:	e3a001bf 	mov	r0, #-1073741777	; 0xc000002f
  185f78:	ee060f11 	mcr	15, 0, r0, cr6, cr1, {0}
  185f7c:	e3a00035 	mov	r0, #53	; 0x35
  185f80:	ee060f12 	mcr	15, 0, r0, cr6, cr2, {0}
  185f84:	e3a001d5 	mov	r0, #1073741877	; 0x40000035
  185f88:	ee060f13 	mcr	15, 0, r0, cr6, cr3, {0}
  185f8c:	e3a0015e 	mov	r0, #-2147483625	; 0x80000017
  185f90:	ee060f14 	mcr	15, 0, r0, cr6, cr4, {0}
  185f94:	e59f056c 	ldr	r0, [pc, #1388]	; 186508 <init_file_modules_task+0x40>
  185f98:	ee060f15 	mcr	15, 0, r0, cr6, cr5, {0}
  185f9c:	e3a00034 	mov	r0, #52	; 0x34
  185fa0:	ee020f10 	mcr	15, 0, r0, cr2, cr0, {0}
  185fa4:	e3a00034 	mov	r0, #52	; 0x34
  185fa8:	ee020f30 	mcr	15, 0, r0, cr2, cr0, {1}
  185fac:	e3a00034 	mov	r0, #52	; 0x34
  185fb0:	ee030f10 	mcr	15, 0, r0, cr3, cr0, {0}
  185fb4:	e59f0550 	ldr	r0, [pc, #1360]	; 18650c <init_file_modules_task+0x44>
  185fb8:	ee050f50 	mcr	15, 0, r0, cr5, cr0, {2}
  185fbc:	e59f0548 	ldr	r0, [pc, #1352]	; 18650c <init_file_modules_task+0x44>
  185fc0:	ee050f70 	mcr	15, 0, r0, cr5, cr0, {3}
  185fc4:	ee110f10 	mrc	15, 0, r0, cr1, cr0, {0}
  185fc8:	e3800a01 	orr	r0, r0, #4096	; 0x1000
  185fcc:	e3800004 	orr	r0, r0, #4
  185fd0:	e3800001 	orr	r0, r0, #1
  185fd4:	ee010f10 	mcr	15, 0, r0, cr1, cr0, {0}
  185fd8:	e3a0111a 	mov	r1, #-2147483642	; 0x80000006
  185fdc:	ee091f11 	mcr	15, 0, r1, cr9, cr1, {0}
  185fe0:	e3a01006 	mov	r1, #6
  185fe4:	ee091f31 	mcr	15, 0, r1, cr9, cr1, {1}
  185fe8:	ee111f10 	mrc	15, 0, r1, cr1, cr0, {0}
  185fec:	e3811805 	orr	r1, r1, #327680	; 0x50000
  185ff0:	ee011f10 	mcr	15, 0, r1, cr1, cr0, {0}
  185ff4:	e59f2514 	ldr	r2, [pc, #1300]	; 186510 <init_file_modules_task+0x48>
  185ff8:	e3a01001 	mov	r1, #1
  185ffc:	e582110c 	str	r1, [r2, #268]	; 0x10c
  186000:	e3e01000 	mvn	r1, #0
  186004:	e582100c 	str	r1, [r2, #12]
  186008:	e582101c 	str	r1, [r2, #28]
  18600c:	e582102c 	str	r1, [r2, #44]	; 0x2c
  186010:	e582103c 	str	r1, [r2, #60]	; 0x3c
  186014:	e582104c 	str	r1, [r2, #76]	; 0x4c
  186018:	e582105c 	str	r1, [r2, #92]	; 0x5c
  18601c:	e582106c 	str	r1, [r2, #108]	; 0x6c
  186020:	e582107c 	str	r1, [r2, #124]	; 0x7c
  186024:	e582108c 	str	r1, [r2, #140]	; 0x8c
  186028:	e582109c 	str	r1, [r2, #156]	; 0x9c
  18602c:	e58210ac 	str	r1, [r2, #172]	; 0xac
  186030:	e58210bc 	str	r1, [r2, #188]	; 0xbc
  186034:	e58210cc 	str	r1, [r2, #204]	; 0xcc
  186038:	e58210dc 	str	r1, [r2, #220]	; 0xdc
  18603c:	e58210ec 	str	r1, [r2, #236]	; 0xec
  186040:	e58210fc 	str	r1, [r2, #252]	; 0xfc
  186044:	e59f14c8 	ldr	r1, [pc, #1224]	; 186514 <init_file_modules_task+0x4c>
  186048:	e59f24c8 	ldr	r2, [pc, #1224]	; 186518 <init_file_modules_task+0x50>
  18604c:	e5812000 	str	r2, [r1]
  186050:	e3a01001 	mov	r1, #1
  186054:	e59f24c0 	ldr	r2, [pc, #1216]	; 18651c <init_file_modules_task+0x54>
  186058:	e5812000 	str	r2, [r1]
  18605c:	e59f24bc 	ldr	r2, [pc, #1212]	; 186520 <init_file_modules_task+0x58>
  186060:	e5921000 	ldr	r1, [r2]
  186064:	e3811001 	orr	r1, r1, #1
  186068:	e5821000 	str	r1, [r2]
  18606c:	e59f04b0 	ldr	r0, [pc, #1200]	; 186524 <init_file_modules_task+0x5c>
  186070:	e59f14b0 	ldr	r1, [pc, #1200]	; 186528 <init_file_modules_task+0x60>
  186074:	e59f34b0 	ldr	r3, [pc, #1200]	; 18652c <init_file_modules_task+0x64>

00186078 <loc_FF82013C>:
  186078:	e1510003 	cmp	r1, r3
  18607c:	34902004 	ldrcc	r2, [r0], #4
  186080:	34812004 	strcc	r2, [r1], #4
  186084:	3afffffb 	bcc	186078 <loc_FF82013C>
  186088:	e59f04a0 	ldr	r0, [pc, #1184]	; 186530 <init_file_modules_task+0x68>
  18608c:	e3a01c19 	mov	r1, #6400	; 0x1900
  186090:	e59f349c 	ldr	r3, [pc, #1180]	; 186534 <init_file_modules_task+0x6c>

00186094 <loc_FF820158>:
  186094:	e1510003 	cmp	r1, r3
  186098:	34902004 	ldrcc	r2, [r0], #4
  18609c:	34812004 	strcc	r2, [r1], #4
  1860a0:	3afffffb 	bcc	186094 <loc_FF820158>
  1860a4:	e59f148c 	ldr	r1, [pc, #1164]	; 186538 <init_file_modules_task+0x70>
  1860a8:	e3a02000 	mov	r2, #0

001860ac <loc_FF820170>:
  1860ac:	e1530001 	cmp	r3, r1
  1860b0:	34832004 	strcc	r2, [r3], #4
  1860b4:	3afffffc 	bcc	1860ac <loc_FF820170>
  1860b8:	e59f047c 	ldr	r0, [pc, #1148]	; 18653c <init_file_modules_task+0x74>
  1860bc:	e8900006 	ldm	r0, {r1, r2}
  1860c0:	e59f0478 	ldr	r0, [pc, #1144]	; 186540 <init_file_modules_task+0x78>
  1860c4:	e8800006 	stm	r0, {r1, r2}
  1860c8:	ea000019 	b	186134 <sub_FF8203C4_my>

001860cc <patch_CreateTask>:
  1860cc:	e51ff004 	ldr	pc, [pc, #-4]	; 1860d0 <patch_CreateTask+0x4>
  1860d0:	001860d4 	.word	0x001860d4

001860d4 <CreateTask_my>:
  1860d4:	e92d0001 	push	{r0}
  1860d8:	e59f0464 	ldr	r0, [pc, #1124]	; 186544 <init_file_modules_task+0x7c>
  1860dc:	e1500003 	cmp	r0, r3
  1860e0:	059f3460 	ldreq	r3, [pc, #1120]	; 186548 <init_file_modules_task+0x80>
  1860e4:	0a00000e 	beq	186124 <exitHook>
  1860e8:	e59f045c 	ldr	r0, [pc, #1116]	; 18654c <init_file_modules_task+0x84>
  1860ec:	e1500003 	cmp	r0, r3
  1860f0:	059f3458 	ldreq	r3, [pc, #1112]	; 186550 <init_file_modules_task+0x88>
  1860f4:	0a00000a 	beq	186124 <exitHook>
  1860f8:	e59f0454 	ldr	r0, [pc, #1108]	; 186554 <init_file_modules_task+0x8c>
  1860fc:	e1500003 	cmp	r0, r3
  186100:	059f3450 	ldreq	r3, [pc, #1104]	; 186558 <init_file_modules_task+0x90>
  186104:	0a000006 	beq	186124 <exitHook>
  186108:	e59f044c 	ldr	r0, [pc, #1100]	; 18655c <init_file_modules_task+0x94>
  18610c:	e1500003 	cmp	r0, r3
  186110:	059f3448 	ldreq	r3, [pc, #1096]	; 186560 <init_file_modules_task+0x98>
  186114:	0a000002 	beq	186124 <exitHook>
  186118:	e59f0444 	ldr	r0, [pc, #1092]	; 186564 <init_file_modules_task+0x9c>
  18611c:	e1500003 	cmp	r0, r3
  186120:	059f3440 	ldreq	r3, [pc, #1088]	; 186568 <init_file_modules_task+0xa0>

00186124 <exitHook>:
  186124:	e8bd0001 	pop	{r0}
  186128:	e92d43fe 	push	{r1, r2, r3, r4, r5, r6, r7, r8, r9, lr}
  18612c:	e1a04000 	mov	r4, r0
  186130:	e59ff434 	ldr	pc, [pc, #1076]	; 18656c <init_file_modules_task+0xa4>

00186134 <sub_FF8203C4_my>:
  186134:	e59f3080 	ldr	r3, [pc, #128]	; 1861bc <loc_FF820420+0x10>
  186138:	e5933484 	ldr	r3, [r3, #1156]	; 0x484
  18613c:	e3130005 	tst	r3, #5
  186140:	03a02602 	moveq	r2, #2097152	; 0x200000
  186144:	13a02501 	movne	r2, #4194304	; 0x400000
  186148:	e3a03a02 	mov	r3, #8192	; 0x2000
  18614c:	e5832a08 	str	r2, [r3, #2568]	; 0xa08
  186150:	e59f0418 	ldr	r0, [pc, #1048]	; 186570 <init_file_modules_task+0xa8>
  186154:	e3a01000 	mov	r1, #0
  186158:	e59f3414 	ldr	r3, [pc, #1044]	; 186574 <init_file_modules_task+0xac>

0018615c <loc_FF8203D0>:
  18615c:	e1500003 	cmp	r0, r3
  186160:	34902004 	ldrcc	r2, [r0], #4
  186164:	34812004 	strcc	r2, [r1], #4
  186168:	3afffffb 	bcc	18615c <loc_FF8203D0>
  18616c:	e59f0400 	ldr	r0, [pc, #1024]	; 186574 <init_file_modules_task+0xac>
  186170:	e3a01d07 	mov	r1, #448	; 0x1c0
  186174:	e59f33fc 	ldr	r3, [pc, #1020]	; 186578 <init_file_modules_task+0xb0>

00186178 <loc_FF8203EC>:
  186178:	e1500003 	cmp	r0, r3
  18617c:	34902004 	ldrcc	r2, [r0], #4
  186180:	34812004 	strcc	r2, [r1], #4
  186184:	3afffffb 	bcc	186178 <loc_FF8203EC>
  186188:	e3a000d2 	mov	r0, #210	; 0xd2
  18618c:	e12ff000 	msr	CPSR_fsxc, r0
  186190:	e3a0da01 	mov	sp, #4096	; 0x1000
  186194:	e3a000d3 	mov	r0, #211	; 0xd3
  186198:	e12ff000 	msr	CPSR_fsxc, r0
  18619c:	e3a0da01 	mov	sp, #4096	; 0x1000
  1861a0:	e3a00fea 	mov	r0, #936	; 0x3a8
  1861a4:	e59f23d0 	ldr	r2, [pc, #976]	; 18657c <init_file_modules_task+0xb4>
  1861a8:	e3a03a01 	mov	r3, #4096	; 0x1000

001861ac <loc_FF820420>:
  1861ac:	e1500003 	cmp	r0, r3
  1861b0:	34802004 	strcc	r2, [r0], #4
  1861b4:	3afffffc 	bcc	1861ac <loc_FF820420>
  1861b8:	ea000000 	b	1861c0 <sub_FF8228D4_my>
  1861bc:	c022f000 	.word	0xc022f000

001861c0 <sub_FF8228D4_my>:
  1861c0:	e59f03b8 	ldr	r0, [pc, #952]	; 186580 <init_file_modules_task+0xb8>
  1861c4:	e52de004 	push	{lr}		; (str lr, [sp, #-4]!)
  1861c8:	e24dd07c 	sub	sp, sp, #124	; 0x7c
  1861cc:	e3a01702 	mov	r1, #524288	; 0x80000
  1861d0:	e5801000 	str	r1, [r0]
  1861d4:	e59f03a8 	ldr	r0, [pc, #936]	; 186584 <init_file_modules_task+0xbc>
  1861d8:	e59f13a8 	ldr	r1, [pc, #936]	; 186588 <init_file_modules_task+0xc0>
  1861dc:	e5810000 	str	r0, [r1]
  1861e0:	e59f13a4 	ldr	r1, [pc, #932]	; 18658c <init_file_modules_task+0xc4>
  1861e4:	e2800a02 	add	r0, r0, #8192	; 0x2000
  1861e8:	e5810000 	str	r0, [r1]
  1861ec:	e3a01078 	mov	r1, #120	; 0x78
  1861f0:	e28d0004 	add	r0, sp, #4
  1861f4:	eb0000fd 	bl	1865f0 <sub_006BAAF4>
  1861f8:	e3a00921 	mov	r0, #540672	; 0x84000
  1861fc:	e58d0008 	str	r0, [sp, #8]
  186200:	e59f0388 	ldr	r0, [pc, #904]	; 186590 <init_file_modules_task+0xc8>
  186204:	e5900000 	ldr	r0, [r0]
  186208:	e59f2384 	ldr	r2, [pc, #900]	; 186594 <init_file_modules_task+0xcc>
  18620c:	e58d000c 	str	r0, [sp, #12]
  186210:	e0420000 	sub	r0, r2, r0
  186214:	e58d0010 	str	r0, [sp, #16]
  186218:	e3a00022 	mov	r0, #34	; 0x22
  18621c:	e58d001c 	str	r0, [sp, #28]
  186220:	e3a0007c 	mov	r0, #124	; 0x7c
  186224:	e58d0020 	str	r0, [sp, #32]
  186228:	e59f1368 	ldr	r1, [pc, #872]	; 186598 <init_file_modules_task+0xd0>
  18622c:	e59f0368 	ldr	r0, [pc, #872]	; 18659c <init_file_modules_task+0xd4>
  186230:	e58d1004 	str	r1, [sp, #4]
  186234:	e58d0024 	str	r0, [sp, #36]	; 0x24
  186238:	e3a00096 	mov	r0, #150	; 0x96
  18623c:	e58d2014 	str	r2, [sp, #20]
  186240:	e58d1018 	str	r1, [sp, #24]
  186244:	e58d0028 	str	r0, [sp, #40]	; 0x28
  186248:	e58d002c 	str	r0, [sp, #44]	; 0x2c
  18624c:	e3a00064 	mov	r0, #100	; 0x64
  186250:	e58d0030 	str	r0, [sp, #48]	; 0x30
  186254:	e3a00000 	mov	r0, #0
  186258:	e58d0034 	str	r0, [sp, #52]	; 0x34
  18625c:	e58d0038 	str	r0, [sp, #56]	; 0x38
  186260:	e58d003c 	str	r0, [sp, #60]	; 0x3c
  186264:	e3a00010 	mov	r0, #16
  186268:	e58d0060 	str	r0, [sp, #96]	; 0x60
  18626c:	e3a00a01 	mov	r0, #4096	; 0x1000
  186270:	e58d0064 	str	r0, [sp, #100]	; 0x64
  186274:	e3a00c01 	mov	r0, #256	; 0x100
  186278:	e58d0068 	str	r0, [sp, #104]	; 0x68
  18627c:	e3a00a02 	mov	r0, #8192	; 0x2000
  186280:	e58d006c 	str	r0, [sp, #108]	; 0x6c
  186284:	e59f1314 	ldr	r1, [pc, #788]	; 1865a0 <init_file_modules_task+0xd8>
  186288:	e3a02000 	mov	r2, #0
  18628c:	e28d0004 	add	r0, sp, #4
  186290:	eb0000d3 	bl	1865e4 <sub_006B1BC8>
  186294:	e28dd07c 	add	sp, sp, #124	; 0x7c
  186298:	e49df004 	pop	{pc}		; (ldr pc, [sp], #4)

0018629c <sub_FF8246FC_my>:
  18629c:	e92d4010 	push	{r4, lr}
  1862a0:	e59f42fc 	ldr	r4, [pc, #764]	; 1865a4 <init_file_modules_task+0xdc>
  1862a4:	eb0000d2 	bl	1865f4 <sub_FF820858>
  1862a8:	e59f12d0 	ldr	r1, [pc, #720]	; 186580 <init_file_modules_task+0xb8>
  1862ac:	e59f02f4 	ldr	r0, [pc, #756]	; 1865a8 <init_file_modules_task+0xe0>
  1862b0:	e5911000 	ldr	r1, [r1]
  1862b4:	e5900000 	ldr	r0, [r0]
  1862b8:	e2811010 	add	r1, r1, #16
  1862bc:	e1500001 	cmp	r0, r1
  1862c0:	359f02e4 	ldrcc	r0, [pc, #740]	; 1865ac <init_file_modules_task+0xe4>
  1862c4:	3b0002bf 	blcc	186dc8 <_err_init_task>
  1862c8:	eb0000d0 	bl	186610 <sub_FF8234D8>
  1862cc:	e3500000 	cmp	r0, #0
  1862d0:	b59f02d8 	ldrlt	r0, [pc, #728]	; 1865b0 <init_file_modules_task+0xe8>
  1862d4:	bb0002bb 	bllt	186dc8 <_err_init_task>
  1862d8:	eb0000c8 	bl	186600 <sub_FF8224E8>
  1862dc:	e3500000 	cmp	r0, #0
  1862e0:	b59f02cc 	ldrlt	r0, [pc, #716]	; 1865b4 <init_file_modules_task+0xec>
  1862e4:	bb0002b7 	bllt	186dc8 <_err_init_task>
  1862e8:	e1a00004 	mov	r0, r4
  1862ec:	eb0000c4 	bl	186604 <sub_FF8225C8>
  1862f0:	e3500000 	cmp	r0, #0
  1862f4:	b59f02bc 	ldrlt	r0, [pc, #700]	; 1865b8 <init_file_modules_task+0xf0>
  1862f8:	bb0002b2 	bllt	186dc8 <_err_init_task>
  1862fc:	e1a00004 	mov	r0, r4
  186300:	eb0000bd 	bl	1865fc <sub_FF822100>
  186304:	e3500000 	cmp	r0, #0
  186308:	b59f02ac 	ldrlt	r0, [pc, #684]	; 1865bc <init_file_modules_task+0xf4>
  18630c:	bb0002ad 	bllt	186dc8 <_err_init_task>
  186310:	eb0000bf 	bl	186614 <sub_FF82534C>
  186314:	e3500000 	cmp	r0, #0
  186318:	b59f02a0 	ldrlt	r0, [pc, #672]	; 1865c0 <init_file_modules_task+0xf8>
  18631c:	bb0002a9 	bllt	186dc8 <_err_init_task>
  186320:	eb0000b4 	bl	1865f8 <sub_FF8210A8>
  186324:	e3500000 	cmp	r0, #0
  186328:	b59f0294 	ldrlt	r0, [pc, #660]	; 1865c4 <init_file_modules_task+0xfc>
  18632c:	bb0002a5 	bllt	186dc8 <_err_init_task>
  186330:	e8bd4010 	pop	{r4, lr}
  186334:	eaffffff 	b	186338 <sub_FF8285C0_my>

00186338 <sub_FF8285C0_my>:
  186338:	e92d4008 	push	{r3, lr}
  18633c:	eb0000de 	bl	1866bc <sub_FF838500>
  186340:	e3500000 	cmp	r0, #0
  186344:	1a000003 	bne	186358 <loc_FF8285E4>
  186348:	eb0000ce 	bl	186688 <sub_FF82E810>
  18634c:	e3500000 	cmp	r0, #0
  186350:	13a00001 	movne	r0, #1
  186354:	1a000000 	bne	18635c <loc_FF8285E8>

00186358 <loc_FF8285E4>:
  186358:	e3a00000 	mov	r0, #0

0018635c <loc_FF8285E8>:
  18635c:	eb000011 	bl	1863a8 <sub_FF82D94C_my>
  186360:	e3500000 	cmp	r0, #0
  186364:	1a000001 	bne	186370 <loc_FF8285FC>
  186368:	eb0000c2 	bl	186678 <sub_FF82D134>

0018636c <loc_FF8285F8>:
  18636c:	eafffffe 	b	18636c <loc_FF8285F8>

00186370 <loc_FF8285FC>:
  186370:	eb0000b4 	bl	186648 <sub_FF82A464>
  186374:	e59f124c 	ldr	r1, [pc, #588]	; 1865c8 <init_file_modules_task+0x100>
  186378:	e3a00000 	mov	r0, #0
  18637c:	eb0000d2 	bl	1866cc <sub_FF838A0C>
  186380:	eb0000b1 	bl	18664c <sub_FF82A7AC>
  186384:	e3a03000 	mov	r3, #0
  186388:	e58d3000 	str	r3, [sp]
  18638c:	e59f3238 	ldr	r3, [pc, #568]	; 1865cc <init_file_modules_task+0x104>
  186390:	e3a02000 	mov	r2, #0
  186394:	e3a01019 	mov	r1, #25
  186398:	e59f0230 	ldr	r0, [pc, #560]	; 1865d0 <init_file_modules_task+0x108>
  18639c:	eb000231 	bl	186c68 <_CreateTask>
  1863a0:	e3a00000 	mov	r0, #0
  1863a4:	e8bd8008 	pop	{r3, pc}

001863a8 <sub_FF82D94C_my>:
  1863a8:	e92d41fc 	push	{r2, r3, r4, r5, r6, r7, r8, lr}
  1863ac:	e1a07000 	mov	r7, r0
  1863b0:	e3a05000 	mov	r5, #0
  1863b4:	e3a00005 	mov	r0, #5
  1863b8:	eb0000c6 	bl	1866d8 <sub_FF8693A4>
  1863bc:	e3a04001 	mov	r4, #1
  1863c0:	e1c46000 	bic	r6, r4, r0
  1863c4:	e3a00006 	mov	r0, #6
  1863c8:	eb0000c2 	bl	1866d8 <sub_FF8693A4>
  1863cc:	e3570000 	cmp	r7, #0
  1863d0:	e1c44000 	bic	r4, r4, r0
  1863d4:	0a000001 	beq	1863e0 <loc_FF82D988>
  1863d8:	e1960004 	orrs	r0, r6, r4
  1863dc:	0a000007 	beq	186400 <loc_FF82D9B0>

001863e0 <loc_FF82D988>:
  1863e0:	eb0000b5 	bl	1866bc <sub_FF838500>
  1863e4:	e1a02000 	mov	r2, r0
  1863e8:	e1a03005 	mov	r3, r5
  1863ec:	e1a01004 	mov	r1, r4
  1863f0:	e1a00006 	mov	r0, r6
  1863f4:	e58d5000 	str	r5, [sp]
  1863f8:	e58d5004 	str	r5, [sp, #4]
  1863fc:	e3a00001 	mov	r0, #1

00186400 <loc_FF82D9B0>:
  186400:	e8bd81fc 	pop	{r2, r3, r4, r5, r6, r7, r8, pc}

00186404 <task_Startup_my>:
  186404:	e92d4010 	push	{r4, lr}
  186408:	eb00007e 	bl	186608 <sub_FF822C7C>
  18640c:	eb00009b 	bl	186680 <sub_FF82DDCC>
  186410:	eb000097 	bl	186674 <sub_FF82D0E0>
  186414:	eb0000a9 	bl	1866c0 <sub_FF83873C>
  186418:	eb0000aa 	bl	1866c8 <sub_FF838898>
  18641c:	eb0000ab 	bl	1866d0 <sub_FF838AE0>
  186420:	eb0000a7 	bl	1866c4 <sub_FF838778>
  186424:	eb0000a0 	bl	1866ac <sub_FF834724>
  186428:	eb0000a9 	bl	1866d4 <sub_FF838AE8>
  18642c:	ebfffeb9 	bl	185f18 <CreateTask_spytask>
  186430:	eb00000a 	bl	186460 <taskcreatePhySw_my>
  186434:	eb00009a 	bl	1866a4 <sub_FF8328DC>
  186438:	eb0000d3 	bl	18678c <sub_FF8AD8A8>
  18643c:	eb000083 	bl	186650 <sub_FF82AFE0>
  186440:	eb000089 	bl	18666c <sub_FF82CC3C>
  186444:	eb00009b 	bl	1866b8 <sub_FF83830C>
  186448:	eb000088 	bl	186670 <sub_FF82D094>
  18644c:	eb000085 	bl	186668 <sub_FF82CBD0>
  186450:	eb00007f 	bl	186654 <sub_FF82BCF0>
  186454:	eb000082 	bl	186664 <sub_FF82CB8C>
  186458:	e8bd4010 	pop	{r4, lr}
  18645c:	ea00006a 	b	18660c <sub_FF822DCC>

00186460 <taskcreatePhySw_my>:
  186460:	e92d4038 	push	{r3, r4, r5, lr}
  186464:	eb000092 	bl	1866b4 <sub_FF83755C>
  186468:	eb000085 	bl	186684 <sub_FF82E748>
  18646c:	e3500000 	cmp	r0, #0
  186470:	0b00008e 	bleq	1866b0 <sub_FF8374C4>
  186474:	e59f4158 	ldr	r4, [pc, #344]	; 1865d4 <init_file_modules_task+0x10c>
  186478:	e5940004 	ldr	r0, [r4, #4]
  18647c:	e3500000 	cmp	r0, #0
  186480:	1a000007 	bne	1864a4 <loc_FF82D83C>
  186484:	e3a03000 	mov	r3, #0
  186488:	e58d3000 	str	r3, [sp]
  18648c:	e59f3144 	ldr	r3, [pc, #324]	; 1865d8 <init_file_modules_task+0x110>
  186490:	e3a02a02 	mov	r2, #8192	; 0x2000
  186494:	e3a01017 	mov	r1, #23
  186498:	e59f013c 	ldr	r0, [pc, #316]	; 1865dc <init_file_modules_task+0x114>
  18649c:	eb00005d 	bl	186618 <sub_FF82661C>
  1864a0:	e5840004 	str	r0, [r4, #4]

001864a4 <loc_FF82D83C>:
  1864a4:	e8bd8038 	pop	{r3, r4, r5, pc}
  1864a8:	e1a01000 	mov	r1, r0
  1864ac:	e3a02000 	mov	r2, #0
  1864b0:	e3a00002 	mov	r0, #2
  1864b4:	ea000070 	b	18667c <sub_FF82DCC8>
  1864b8:	e1a02001 	mov	r2, r1
  1864bc:	e1a01000 	mov	r1, r0
  1864c0:	e3a00003 	mov	r0, #3
  1864c4:	ea00006c 	b	18667c <sub_FF82DCC8>

001864c8 <init_file_modules_task>:
  1864c8:	e92d4070 	push	{r4, r5, r6, lr}
  1864cc:	eb0000ac 	bl	186784 <sub_FF89D768>
  1864d0:	e59f5108 	ldr	r5, [pc, #264]	; 1865e0 <init_file_modules_task+0x118>
  1864d4:	e1b04000 	movs	r4, r0
  1864d8:	13a01000 	movne	r1, #0
  1864dc:	11a00005 	movne	r0, r5
  1864e0:	1b000212 	blne	186d30 <_PostLogicalEventToUI>
  1864e4:	eb0000a7 	bl	186788 <sub_FF89D798>
  1864e8:	eb00561d 	bl	19bd64 <__core_spytask_can_start_from_arm>
  1864ec:	e3540000 	cmp	r4, #0
  1864f0:	18bd8070 	popne	{r4, r5, r6, pc}
  1864f4:	e1a00005 	mov	r0, r5
  1864f8:	e8bd4070 	pop	{r4, r5, r6, lr}
  1864fc:	e3a01000 	mov	r1, #0
  186500:	ea00020a 	b	186d30 <_PostLogicalEventToUI>
  186504:	c0410000 	.word	0xc0410000
  186508:	ff80002d 	.word	0xff80002d
  18650c:	03333330 	.word	0x03333330
  186510:	c0200000 	.word	0xc0200000
  186514:	c0400008 	.word	0xc0400008
  186518:	00430005 	.word	0x00430005
  18651c:	c0243100 	.word	0xc0243100
  186520:	c0242010 	.word	0xc0242010
  186524:	ffcf60b4 	.word	0xffcf60b4
  186528:	006b1000 	.word	0x006b1000
  18652c:	006be8da 	.word	0x006be8da
  186530:	ffce7fc8 	.word	0xffce7fc8
  186534:	0000f9ec 	.word	0x0000f9ec
  186538:	00185cb0 	.word	0x00185cb0
  18653c:	001860cc 	.word	0x001860cc
  186540:	ff824a30 	.word	0xff824a30
  186544:	ff88ca84 	.word	0xff88ca84
  186548:	001871bc 	.word	0x001871bc
  18654c:	ff8db0b0 	.word	0xff8db0b0
  186550:	00188154 	.word	0x00188154
  186554:	ffab8cf0 	.word	0xffab8cf0
  186558:	00188e1c 	.word	0x00188e1c
  18655c:	ff995d5c 	.word	0xff995d5c
  186560:	001889e0 	.word	0x001889e0
  186564:	ff85ab10 	.word	0xff85ab10
  186568:	001864c8 	.word	0x001864c8
  18656c:	ff824a38 	.word	0xff824a38
  186570:	ff82043c 	.word	0xff82043c
  186574:	ff820474 	.word	0xff820474
  186578:	ff82065c 	.word	0xff82065c
  18657c:	eeeeeeee 	.word	0xeeeeeeee
  186580:	00001a5c 	.word	0x00001a5c
  186584:	40bee980 	.word	0x40bee980
  186588:	00001a60 	.word	0x00001a60
  18658c:	00001a64 	.word	0x00001a64
  186590:	0019c3f8 	.word	0x0019c3f8
  186594:	005817b0 	.word	0x005817b0
  186598:	0058a000 	.word	0x0058a000
  18659c:	000001d3 	.word	0x000001d3
  1865a0:	0018629c 	.word	0x0018629c
  1865a4:	ff8247b8 	.word	0xff8247b8
  1865a8:	000019f0 	.word	0x000019f0
  1865ac:	ff8247c8 	.word	0xff8247c8
  1865b0:	ff8247e0 	.word	0xff8247e0
  1865b4:	ff8247e8 	.word	0xff8247e8
  1865b8:	ff8247f8 	.word	0xff8247f8
  1865bc:	ff82480c 	.word	0xff82480c
  1865c0:	ff824818 	.word	0xff824818
  1865c4:	ff824824 	.word	0xff824824
  1865c8:	0060e000 	.word	0x0060e000
  1865cc:	00186404 	.word	0x00186404
  1865d0:	ff82863c 	.word	0xff82863c
  1865d4:	00001c94 	.word	0x00001c94
  1865d8:	0019b7cc 	.word	0x0019b7cc
  1865dc:	ff82daa8 	.word	0xff82daa8
  1865e0:	00005006 	.word	0x00005006

001865e4 <sub_006B1BC8>:
  1865e4:	e59ff334 	ldr	pc, [pc, #820]	; 186920 <sub_FFAD84D0+0x4>

001865e8 <sub_006BA828>:
  1865e8:	e59ff334 	ldr	pc, [pc, #820]	; 186924 <sub_FFAD84D0+0x8>

001865ec <sub_006BAA10>:
  1865ec:	e59ff334 	ldr	pc, [pc, #820]	; 186928 <sub_FFAD84D0+0xc>

001865f0 <sub_006BAAF4>:
  1865f0:	e59ff334 	ldr	pc, [pc, #820]	; 18692c <sub_FFAD84D0+0x10>

001865f4 <sub_FF820858>:
  1865f4:	e59ff334 	ldr	pc, [pc, #820]	; 186930 <sub_FFAD84D0+0x14>

001865f8 <sub_FF8210A8>:
  1865f8:	e59ff334 	ldr	pc, [pc, #820]	; 186934 <sub_FFAD84D0+0x18>

001865fc <sub_FF822100>:
  1865fc:	e59ff334 	ldr	pc, [pc, #820]	; 186938 <sub_FFAD84D0+0x1c>

00186600 <sub_FF8224E8>:
  186600:	e59ff334 	ldr	pc, [pc, #820]	; 18693c <sub_FFAD84D0+0x20>

00186604 <sub_FF8225C8>:
  186604:	e59ff334 	ldr	pc, [pc, #820]	; 186940 <sub_FFAD84D0+0x24>

00186608 <sub_FF822C7C>:
  186608:	e59ff334 	ldr	pc, [pc, #820]	; 186944 <sub_FFAD84D0+0x28>

0018660c <sub_FF822DCC>:
  18660c:	e59ff334 	ldr	pc, [pc, #820]	; 186948 <sub_FFAD84D0+0x2c>

00186610 <sub_FF8234D8>:
  186610:	e59ff334 	ldr	pc, [pc, #820]	; 18694c <sub_FFAD84D0+0x30>

00186614 <sub_FF82534C>:
  186614:	e59ff334 	ldr	pc, [pc, #820]	; 186950 <sub_FFAD84D0+0x34>

00186618 <sub_FF82661C>:
  186618:	e59ff334 	ldr	pc, [pc, #820]	; 186954 <sub_FFAD84D0+0x38>

0018661c <sub_FF826774>:
  18661c:	e59ff334 	ldr	pc, [pc, #820]	; 186958 <sub_FFAD84D0+0x3c>

00186620 <sub_FF826A9C>:
  186620:	e59ff334 	ldr	pc, [pc, #820]	; 18695c <sub_FFAD84D0+0x40>

00186624 <sub_FF827BC8>:
  186624:	e59ff334 	ldr	pc, [pc, #820]	; 186960 <sub_FFAD84D0+0x44>

00186628 <sub_FF827E74>:
  186628:	e59ff334 	ldr	pc, [pc, #820]	; 186964 <sub_FFAD84D0+0x48>

0018662c <sub_FF8281A4>:
  18662c:	e59ff334 	ldr	pc, [pc, #820]	; 186968 <sub_FFAD84D0+0x4c>

00186630 <sub_FF829A0C>:
  186630:	e59ff334 	ldr	pc, [pc, #820]	; 18696c <sub_FFAD84D0+0x50>

00186634 <sub_FF829AF8>:
  186634:	e59ff334 	ldr	pc, [pc, #820]	; 186970 <sub_FFAD84D0+0x54>

00186638 <sub_FF829BC4>:
  186638:	e59ff334 	ldr	pc, [pc, #820]	; 186974 <sub_FFAD84D0+0x58>

0018663c <sub_FF829C0C>:
  18663c:	e59ff334 	ldr	pc, [pc, #820]	; 186978 <sub_FFAD84D0+0x5c>

00186640 <sub_FF829E30>:
  186640:	e59ff334 	ldr	pc, [pc, #820]	; 18697c <sub_FFAD84D0+0x60>

00186644 <sub_FF82A0AC>:
  186644:	e59ff334 	ldr	pc, [pc, #820]	; 186980 <sub_FFAD84D0+0x64>

00186648 <sub_FF82A464>:
  186648:	e59ff334 	ldr	pc, [pc, #820]	; 186984 <sub_FFAD84D0+0x68>

0018664c <sub_FF82A7AC>:
  18664c:	e59ff334 	ldr	pc, [pc, #820]	; 186988 <sub_FFAD84D0+0x6c>

00186650 <sub_FF82AFE0>:
  186650:	e59ff334 	ldr	pc, [pc, #820]	; 18698c <sub_FFAD84D0+0x70>

00186654 <sub_FF82BCF0>:
  186654:	e59ff334 	ldr	pc, [pc, #820]	; 186990 <sub_FFAD84D0+0x74>

00186658 <sub_FF82C980>:
  186658:	e59ff334 	ldr	pc, [pc, #820]	; 186994 <sub_FFAD84D0+0x78>

0018665c <sub_FF82CAD8>:
  18665c:	e59ff334 	ldr	pc, [pc, #820]	; 186998 <sub_FFAD84D0+0x7c>

00186660 <sub_FF82CB64>:
  186660:	e59ff334 	ldr	pc, [pc, #820]	; 18699c <sub_FFAD84D0+0x80>

00186664 <sub_FF82CB8C>:
  186664:	e59ff334 	ldr	pc, [pc, #820]	; 1869a0 <sub_FFAD84D0+0x84>

00186668 <sub_FF82CBD0>:
  186668:	e59ff334 	ldr	pc, [pc, #820]	; 1869a4 <sub_FFAD84D0+0x88>

0018666c <sub_FF82CC3C>:
  18666c:	e59ff334 	ldr	pc, [pc, #820]	; 1869a8 <sub_FFAD84D0+0x8c>

00186670 <sub_FF82D094>:
  186670:	e59ff334 	ldr	pc, [pc, #820]	; 1869ac <sub_FFAD84D0+0x90>

00186674 <sub_FF82D0E0>:
  186674:	e59ff334 	ldr	pc, [pc, #820]	; 1869b0 <sub_FFAD84D0+0x94>

00186678 <sub_FF82D134>:
  186678:	e59ff334 	ldr	pc, [pc, #820]	; 1869b4 <sub_FFAD84D0+0x98>

0018667c <sub_FF82DCC8>:
  18667c:	e59ff334 	ldr	pc, [pc, #820]	; 1869b8 <sub_FFAD84D0+0x9c>

00186680 <sub_FF82DDCC>:
  186680:	e59ff334 	ldr	pc, [pc, #820]	; 1869bc <sub_FFAD84D0+0xa0>

00186684 <sub_FF82E748>:
  186684:	e59ff334 	ldr	pc, [pc, #820]	; 1869c0 <sub_FFAD84D0+0xa4>

00186688 <sub_FF82E810>:
  186688:	e59ff334 	ldr	pc, [pc, #820]	; 1869c4 <sub_FFAD84D0+0xa8>

0018668c <sub_FF82F038>:
  18668c:	e59ff334 	ldr	pc, [pc, #820]	; 1869c8 <sub_FFAD84D0+0xac>

00186690 <sub_FF82F050>:
  186690:	e59ff334 	ldr	pc, [pc, #820]	; 1869cc <sub_FFAD84D0+0xb0>

00186694 <sub_FF82F91C>:
  186694:	e59ff334 	ldr	pc, [pc, #820]	; 1869d0 <sub_FFAD84D0+0xb4>

00186698 <sub_FF82FFB8>:
  186698:	e59ff334 	ldr	pc, [pc, #820]	; 1869d4 <sub_FFAD84D0+0xb8>

0018669c <sub_FF8300F8>:
  18669c:	e59ff334 	ldr	pc, [pc, #820]	; 1869d8 <sub_FFAD84D0+0xbc>

001866a0 <sub_FF83222C>:
  1866a0:	e59ff334 	ldr	pc, [pc, #820]	; 1869dc <sub_FFAD84D0+0xc0>

001866a4 <sub_FF8328DC>:
  1866a4:	e59ff334 	ldr	pc, [pc, #820]	; 1869e0 <sub_FFAD84D0+0xc4>

001866a8 <sub_FF833F7C>:
  1866a8:	e59ff334 	ldr	pc, [pc, #820]	; 1869e4 <sub_FFAD84D0+0xc8>

001866ac <sub_FF834724>:
  1866ac:	e59ff334 	ldr	pc, [pc, #820]	; 1869e8 <sub_FFAD84D0+0xcc>

001866b0 <sub_FF8374C4>:
  1866b0:	e59ff334 	ldr	pc, [pc, #820]	; 1869ec <sub_FFAD84D0+0xd0>

001866b4 <sub_FF83755C>:
  1866b4:	e59ff334 	ldr	pc, [pc, #820]	; 1869f0 <sub_FFAD84D0+0xd4>

001866b8 <sub_FF83830C>:
  1866b8:	e59ff334 	ldr	pc, [pc, #820]	; 1869f4 <sub_FFAD84D0+0xd8>

001866bc <sub_FF838500>:
  1866bc:	e59ff334 	ldr	pc, [pc, #820]	; 1869f8 <sub_FFAD84D0+0xdc>

001866c0 <sub_FF83873C>:
  1866c0:	e59ff334 	ldr	pc, [pc, #820]	; 1869fc <sub_FFAD84D0+0xe0>

001866c4 <sub_FF838778>:
  1866c4:	e59ff334 	ldr	pc, [pc, #820]	; 186a00 <sub_FFAD84D0+0xe4>

001866c8 <sub_FF838898>:
  1866c8:	e59ff334 	ldr	pc, [pc, #820]	; 186a04 <sub_FFAD84D0+0xe8>

001866cc <sub_FF838A0C>:
  1866cc:	e59ff334 	ldr	pc, [pc, #820]	; 186a08 <sub_FFAD84D0+0xec>

001866d0 <sub_FF838AE0>:
  1866d0:	e59ff334 	ldr	pc, [pc, #820]	; 186a0c <sub_FFAD84D0+0xf0>

001866d4 <sub_FF838AE8>:
  1866d4:	e59ff334 	ldr	pc, [pc, #820]	; 186a10 <sub_FFAD84D0+0xf4>

001866d8 <sub_FF8693A4>:
  1866d8:	e59ff334 	ldr	pc, [pc, #820]	; 186a14 <sub_FFAD84D0+0xf8>

001866dc <sub_FF86EA38>:
  1866dc:	e59ff334 	ldr	pc, [pc, #820]	; 186a18 <sub_FFAD84D0+0xfc>

001866e0 <sub_FF87F79C>:
  1866e0:	e59ff334 	ldr	pc, [pc, #820]	; 186a1c <sub_FFAD84D0+0x100>

001866e4 <sub_FF87F7B4>:
  1866e4:	e59ff334 	ldr	pc, [pc, #820]	; 186a20 <sub_FFAD84D0+0x104>

001866e8 <sub_FF887A8C>:
  1866e8:	e59ff334 	ldr	pc, [pc, #820]	; 186a24 <sub_FFAD84D0+0x108>

001866ec <sub_FF887B18>:
  1866ec:	e59ff334 	ldr	pc, [pc, #820]	; 186a28 <sub_FFAD84D0+0x10c>

001866f0 <sub_FF887CA4>:
  1866f0:	e59ff334 	ldr	pc, [pc, #820]	; 186a2c <sub_FFAD84D0+0x110>

001866f4 <sub_FF88A030>:
  1866f4:	e59ff334 	ldr	pc, [pc, #820]	; 186a30 <sub_FFAD84D0+0x114>

001866f8 <sub_FF88A928>:
  1866f8:	e59ff334 	ldr	pc, [pc, #820]	; 186a34 <sub_FFAD84D0+0x118>

001866fc <sub_FF88AB48>:
  1866fc:	e59ff334 	ldr	pc, [pc, #820]	; 186a38 <sub_FFAD84D0+0x11c>

00186700 <sub_FF88B2D4>:
  186700:	e59ff334 	ldr	pc, [pc, #820]	; 186a3c <sub_FFAD84D0+0x120>

00186704 <sub_FF88C004>:
  186704:	e59ff334 	ldr	pc, [pc, #820]	; 186a40 <sub_FFAD84D0+0x124>

00186708 <sub_FF88CEF8>:
  186708:	e59ff334 	ldr	pc, [pc, #820]	; 186a44 <sub_FFAD84D0+0x128>

0018670c <sub_FF88D288>:
  18670c:	e59ff334 	ldr	pc, [pc, #820]	; 186a48 <sub_FFAD84D0+0x12c>

00186710 <sub_FF88D290>:
  186710:	e59ff334 	ldr	pc, [pc, #820]	; 186a4c <sub_FFAD84D0+0x130>

00186714 <sub_FF88D298>:
  186714:	e59ff334 	ldr	pc, [pc, #820]	; 186a50 <sub_FFAD84D0+0x134>

00186718 <sub_FF88D2AC>:
  186718:	e59ff334 	ldr	pc, [pc, #820]	; 186a54 <sub_FFAD84D0+0x138>

0018671c <sub_FF88D4C8>:
  18671c:	e59ff334 	ldr	pc, [pc, #820]	; 186a58 <sub_FFAD84D0+0x13c>

00186720 <sub_FF88D55C>:
  186720:	e59ff334 	ldr	pc, [pc, #820]	; 186a5c <sub_FFAD84D0+0x140>

00186724 <sub_FF88D604>:
  186724:	e59ff334 	ldr	pc, [pc, #820]	; 186a60 <sub_FFAD84D0+0x144>

00186728 <sub_FF88D74C>:
  186728:	e59ff334 	ldr	pc, [pc, #820]	; 186a64 <sub_FFAD84D0+0x148>

0018672c <sub_FF88D7D4>:
  18672c:	e59ff334 	ldr	pc, [pc, #820]	; 186a68 <sub_FFAD84D0+0x14c>

00186730 <sub_FF88DBB8>:
  186730:	e59ff334 	ldr	pc, [pc, #820]	; 186a6c <sub_FFAD84D0+0x150>

00186734 <sub_FF88DFF8>:
  186734:	e59ff334 	ldr	pc, [pc, #820]	; 186a70 <sub_FFAD84D0+0x154>

00186738 <sub_FF88E060>:
  186738:	e59ff334 	ldr	pc, [pc, #820]	; 186a74 <sub_FFAD84D0+0x158>

0018673c <sub_FF88E388>:
  18673c:	e59ff334 	ldr	pc, [pc, #820]	; 186a78 <sub_FFAD84D0+0x15c>

00186740 <sub_FF88E3E4>:
  186740:	e59ff334 	ldr	pc, [pc, #820]	; 186a7c <sub_FFAD84D0+0x160>

00186744 <sub_FF88E494>:
  186744:	e59ff334 	ldr	pc, [pc, #820]	; 186a80 <sub_FFAD84D0+0x164>

00186748 <sub_FF88E860>:
  186748:	e59ff334 	ldr	pc, [pc, #820]	; 186a84 <sub_FFAD84D0+0x168>

0018674c <sub_FF88F818>:
  18674c:	e59ff334 	ldr	pc, [pc, #820]	; 186a88 <sub_FFAD84D0+0x16c>

00186750 <sub_FF8905A0>:
  186750:	e59ff334 	ldr	pc, [pc, #820]	; 186a8c <sub_FFAD84D0+0x170>

00186754 <sub_FF890690>:
  186754:	e59ff334 	ldr	pc, [pc, #820]	; 186a90 <sub_FFAD84D0+0x174>

00186758 <sub_FF8906E8>:
  186758:	e59ff334 	ldr	pc, [pc, #820]	; 186a94 <sub_FFAD84D0+0x178>

0018675c <sub_FF890820>:
  18675c:	e59ff334 	ldr	pc, [pc, #820]	; 186a98 <sub_FFAD84D0+0x17c>

00186760 <sub_FF890BB8>:
  186760:	e59ff334 	ldr	pc, [pc, #820]	; 186a9c <sub_FFAD84D0+0x180>

00186764 <sub_FF892098>:
  186764:	e59ff334 	ldr	pc, [pc, #820]	; 186aa0 <sub_FFAD84D0+0x184>

00186768 <sub_FF8920F4>:
  186768:	e59ff334 	ldr	pc, [pc, #820]	; 186aa4 <sub_FFAD84D0+0x188>

0018676c <sub_FF892150>:
  18676c:	e59ff334 	ldr	pc, [pc, #820]	; 186aa8 <sub_FFAD84D0+0x18c>

00186770 <sub_FF89237C>:
  186770:	e59ff334 	ldr	pc, [pc, #820]	; 186aac <sub_FFAD84D0+0x190>

00186774 <sub_FF892778>:
  186774:	e59ff334 	ldr	pc, [pc, #820]	; 186ab0 <sub_FFAD84D0+0x194>

00186778 <sub_FF893AC8>:
  186778:	e59ff334 	ldr	pc, [pc, #820]	; 186ab4 <sub_FFAD84D0+0x198>

0018677c <sub_FF893AD4>:
  18677c:	e59ff334 	ldr	pc, [pc, #820]	; 186ab8 <sub_FFAD84D0+0x19c>

00186780 <sub_FF89D354>:
  186780:	e59ff334 	ldr	pc, [pc, #820]	; 186abc <sub_FFAD84D0+0x1a0>

00186784 <sub_FF89D768>:
  186784:	e59ff334 	ldr	pc, [pc, #820]	; 186ac0 <sub_FFAD84D0+0x1a4>

00186788 <sub_FF89D798>:
  186788:	e59ff334 	ldr	pc, [pc, #820]	; 186ac4 <sub_FFAD84D0+0x1a8>

0018678c <sub_FF8AD8A8>:
  18678c:	e59ff334 	ldr	pc, [pc, #820]	; 186ac8 <sub_FFAD84D0+0x1ac>

00186790 <sub_FF8B0664>:
  186790:	e59ff334 	ldr	pc, [pc, #820]	; 186acc <sub_FFAD84D0+0x1b0>

00186794 <sub_FF8C32EC>:
  186794:	e59ff334 	ldr	pc, [pc, #820]	; 186ad0 <sub_FFAD84D0+0x1b4>

00186798 <sub_FF8C3658>:
  186798:	e59ff334 	ldr	pc, [pc, #820]	; 186ad4 <sub_FFAD84D0+0x1b8>

0018679c <sub_FF8C3FB0>:
  18679c:	e59ff334 	ldr	pc, [pc, #820]	; 186ad8 <sub_FFAD84D0+0x1bc>

001867a0 <sub_FF8C44D0>:
  1867a0:	e59ff334 	ldr	pc, [pc, #820]	; 186adc <sub_FFAD84D0+0x1c0>

001867a4 <sub_FF8C8A5C>:
  1867a4:	e59ff334 	ldr	pc, [pc, #820]	; 186ae0 <sub_FFAD84D0+0x1c4>

001867a8 <sub_FF8CB610>:
  1867a8:	e59ff334 	ldr	pc, [pc, #820]	; 186ae4 <sub_FFAD84D0+0x1c8>

001867ac <sub_FF8CB6EC>:
  1867ac:	e59ff334 	ldr	pc, [pc, #820]	; 186ae8 <sub_FFAD84D0+0x1cc>

001867b0 <sub_FF8CB7C0>:
  1867b0:	e59ff334 	ldr	pc, [pc, #820]	; 186aec <sub_FFAD84D0+0x1d0>

001867b4 <sub_FF8CBF20>:
  1867b4:	e59ff334 	ldr	pc, [pc, #820]	; 186af0 <sub_FFAD84D0+0x1d4>

001867b8 <sub_FF8CC008>:
  1867b8:	e59ff334 	ldr	pc, [pc, #820]	; 186af4 <sub_FFAD84D0+0x1d8>

001867bc <sub_FF8CC134>:
  1867bc:	e59ff334 	ldr	pc, [pc, #820]	; 186af8 <sub_FFAD84D0+0x1dc>

001867c0 <sub_FF8D64EC>:
  1867c0:	e59ff334 	ldr	pc, [pc, #820]	; 186afc <sub_FFAD84D0+0x1e0>

001867c4 <sub_FF8D66CC>:
  1867c4:	e59ff334 	ldr	pc, [pc, #820]	; 186b00 <sub_FFAD84D0+0x1e4>

001867c8 <sub_FF8D6724>:
  1867c8:	e59ff334 	ldr	pc, [pc, #820]	; 186b04 <sub_FFAD84D0+0x1e8>

001867cc <sub_FF8D677C>:
  1867cc:	e59ff334 	ldr	pc, [pc, #820]	; 186b08 <sub_FFAD84D0+0x1ec>

001867d0 <sub_FF8D67D4>:
  1867d0:	e59ff334 	ldr	pc, [pc, #820]	; 186b0c <sub_FFAD84D0+0x1f0>

001867d4 <sub_FF8D686C>:
  1867d4:	e59ff334 	ldr	pc, [pc, #820]	; 186b10 <sub_FFAD84D0+0x1f4>

001867d8 <sub_FF8D69E8>:
  1867d8:	e59ff334 	ldr	pc, [pc, #820]	; 186b14 <sub_FFAD84D0+0x1f8>

001867dc <sub_FF8D6AA0>:
  1867dc:	e59ff334 	ldr	pc, [pc, #820]	; 186b18 <sub_FFAD84D0+0x1fc>

001867e0 <sub_FF8D6D6C>:
  1867e0:	e59ff334 	ldr	pc, [pc, #820]	; 186b1c <sub_FFAD84D0+0x200>

001867e4 <sub_FF8D6FAC>:
  1867e4:	e59ff334 	ldr	pc, [pc, #820]	; 186b20 <sub_FFAD84D0+0x204>

001867e8 <sub_FF8D72F4>:
  1867e8:	e59ff334 	ldr	pc, [pc, #820]	; 186b24 <sub_FFAD84D0+0x208>

001867ec <sub_FF8D7524>:
  1867ec:	e59ff334 	ldr	pc, [pc, #820]	; 186b28 <sub_FFAD84D0+0x20c>

001867f0 <sub_FF8D7AE8>:
  1867f0:	e59ff334 	ldr	pc, [pc, #820]	; 186b2c <sub_FFAD84D0+0x210>

001867f4 <sub_FF8D8050>:
  1867f4:	e59ff334 	ldr	pc, [pc, #820]	; 186b30 <sub_FFAD84D0+0x214>

001867f8 <sub_FF8D8164>:
  1867f8:	e59ff334 	ldr	pc, [pc, #820]	; 186b34 <sub_FFAD84D0+0x218>

001867fc <sub_FF8D83C8>:
  1867fc:	e59ff334 	ldr	pc, [pc, #820]	; 186b38 <sub_FFAD84D0+0x21c>

00186800 <sub_FF8D8818>:
  186800:	e59ff334 	ldr	pc, [pc, #820]	; 186b3c <sub_FFAD84D0+0x220>

00186804 <sub_FF8D8930>:
  186804:	e59ff334 	ldr	pc, [pc, #820]	; 186b40 <sub_FFAD84D0+0x224>

00186808 <sub_FF8D8CC8>:
  186808:	e59ff334 	ldr	pc, [pc, #820]	; 186b44 <sub_FFAD84D0+0x228>

0018680c <sub_FF8D8F38>:
  18680c:	e59ff334 	ldr	pc, [pc, #820]	; 186b48 <sub_FFAD84D0+0x22c>

00186810 <sub_FF8D9104>:
  186810:	e59ff334 	ldr	pc, [pc, #820]	; 186b4c <sub_FFAD84D0+0x230>

00186814 <sub_FF8D927C>:
  186814:	e59ff334 	ldr	pc, [pc, #820]	; 186b50 <sub_FFAD84D0+0x234>

00186818 <sub_FF8D949C>:
  186818:	e59ff334 	ldr	pc, [pc, #820]	; 186b54 <sub_FFAD84D0+0x238>

0018681c <sub_FF8D970C>:
  18681c:	e59ff334 	ldr	pc, [pc, #820]	; 186b58 <sub_FFAD84D0+0x23c>

00186820 <sub_FF8DAD5C>:
  186820:	e59ff334 	ldr	pc, [pc, #820]	; 186b5c <sub_FFAD84D0+0x240>

00186824 <sub_FF8DAFE0>:
  186824:	e59ff334 	ldr	pc, [pc, #820]	; 186b60 <sub_FFAD84D0+0x244>

00186828 <sub_FF8DB050>:
  186828:	e59ff334 	ldr	pc, [pc, #820]	; 186b64 <sub_FFAD84D0+0x248>

0018682c <sub_FF8DC8F0>:
  18682c:	e59ff334 	ldr	pc, [pc, #820]	; 186b68 <sub_FFAD84D0+0x24c>

00186830 <sub_FF8DC954>:
  186830:	e59ff334 	ldr	pc, [pc, #820]	; 186b6c <sub_FFAD84D0+0x250>

00186834 <sub_FF8DC970>:
  186834:	e59ff334 	ldr	pc, [pc, #820]	; 186b70 <sub_FFAD84D0+0x254>

00186838 <sub_FF8DC9B4>:
  186838:	e59ff334 	ldr	pc, [pc, #820]	; 186b74 <sub_FFAD84D0+0x258>

0018683c <sub_FF8DCAE8>:
  18683c:	e59ff334 	ldr	pc, [pc, #820]	; 186b78 <sub_FFAD84D0+0x25c>

00186840 <sub_FF8DCB94>:
  186840:	e59ff334 	ldr	pc, [pc, #820]	; 186b7c <sub_FFAD84D0+0x260>

00186844 <sub_FF8DCC3C>:
  186844:	e59ff334 	ldr	pc, [pc, #820]	; 186b80 <sub_FFAD84D0+0x264>

00186848 <sub_FF8DCE6C>:
  186848:	e59ff334 	ldr	pc, [pc, #820]	; 186b84 <sub_FFAD84D0+0x268>

0018684c <sub_FF90CF8C>:
  18684c:	e59ff334 	ldr	pc, [pc, #820]	; 186b88 <sub_FFAD84D0+0x26c>

00186850 <sub_FF90F658>:
  186850:	e59ff334 	ldr	pc, [pc, #820]	; 186b8c <sub_FFAD84D0+0x270>

00186854 <sub_FF957490>:
  186854:	e59ff334 	ldr	pc, [pc, #820]	; 186b90 <sub_FFAD84D0+0x274>

00186858 <sub_FF994ED4>:
  186858:	e59ff334 	ldr	pc, [pc, #820]	; 186b94 <sub_FFAD84D0+0x278>

0018685c <sub_FF994FF8>:
  18685c:	e59ff334 	ldr	pc, [pc, #820]	; 186b98 <sub_FFAD84D0+0x27c>

00186860 <sub_FF995164>:
  186860:	e59ff334 	ldr	pc, [pc, #820]	; 186b9c <sub_FFAD84D0+0x280>

00186864 <sub_FF9952A4>:
  186864:	e59ff334 	ldr	pc, [pc, #820]	; 186ba0 <sub_FFAD84D0+0x284>

00186868 <sub_FF995644>:
  186868:	e59ff334 	ldr	pc, [pc, #820]	; 186ba4 <sub_FFAD84D0+0x288>

0018686c <sub_FF9966D4>:
  18686c:	e59ff334 	ldr	pc, [pc, #820]	; 186ba8 <sub_FFAD84D0+0x28c>

00186870 <sub_FF9992C0>:
  186870:	e59ff334 	ldr	pc, [pc, #820]	; 186bac <sub_FFAD84D0+0x290>

00186874 <sub_FF9994F8>:
  186874:	e59ff334 	ldr	pc, [pc, #820]	; 186bb0 <sub_FFAD84D0+0x294>

00186878 <sub_FF9995B4>:
  186878:	e59ff334 	ldr	pc, [pc, #820]	; 186bb4 <sub_FFAD84D0+0x298>

0018687c <sub_FF99968C>:
  18687c:	e59ff334 	ldr	pc, [pc, #820]	; 186bb8 <sub_FFAD84D0+0x29c>

00186880 <sub_FF99975C>:
  186880:	e59ff334 	ldr	pc, [pc, #820]	; 186bbc <sub_FFAD84D0+0x2a0>

00186884 <sub_FF99979C>:
  186884:	e59ff334 	ldr	pc, [pc, #820]	; 186bc0 <sub_FFAD84D0+0x2a4>

00186888 <sub_FF9998F4>:
  186888:	e59ff334 	ldr	pc, [pc, #820]	; 186bc4 <sub_FFAD84D0+0x2a8>

0018688c <sub_FF999A54>:
  18688c:	e59ff334 	ldr	pc, [pc, #820]	; 186bc8 <sub_FFAD84D0+0x2ac>

00186890 <sub_FF999AF0>:
  186890:	e59ff334 	ldr	pc, [pc, #820]	; 186bcc <sub_FFAD84D0+0x2b0>

00186894 <sub_FF999B9C>:
  186894:	e59ff334 	ldr	pc, [pc, #820]	; 186bd0 <sub_FFAD84D0+0x2b4>

00186898 <sub_FF999CAC>:
  186898:	e59ff334 	ldr	pc, [pc, #820]	; 186bd4 <sub_FFAD84D0+0x2b8>

0018689c <sub_FF999D34>:
  18689c:	e59ff334 	ldr	pc, [pc, #820]	; 186bd8 <sub_FFAD84D0+0x2bc>

001868a0 <sub_FF999DC0>:
  1868a0:	e59ff334 	ldr	pc, [pc, #820]	; 186bdc <sub_FFAD84D0+0x2c0>

001868a4 <sub_FF999E38>:
  1868a4:	e59ff334 	ldr	pc, [pc, #820]	; 186be0 <sub_FFAD84D0+0x2c4>

001868a8 <sub_FF999EC4>:
  1868a8:	e59ff334 	ldr	pc, [pc, #820]	; 186be4 <sub_FFAD84D0+0x2c8>

001868ac <sub_FF99A2E0>:
  1868ac:	e59ff334 	ldr	pc, [pc, #820]	; 186be8 <sub_FFAD84D0+0x2cc>

001868b0 <sub_FF99A30C>:
  1868b0:	e59ff334 	ldr	pc, [pc, #820]	; 186bec <sub_FFAD84D0+0x2d0>

001868b4 <sub_FF99A334>:
  1868b4:	e59ff334 	ldr	pc, [pc, #820]	; 186bf0 <sub_FFAD84D0+0x2d4>

001868b8 <sub_FF99A378>:
  1868b8:	e59ff334 	ldr	pc, [pc, #820]	; 186bf4 <sub_FFAD84D0+0x2d8>

001868bc <sub_FF99A3F4>:
  1868bc:	e59ff334 	ldr	pc, [pc, #820]	; 186bf8 <sub_FFAD84D0+0x2dc>

001868c0 <sub_FF99A48C>:
  1868c0:	e59ff334 	ldr	pc, [pc, #820]	; 186bfc <sub_FFAD84D0+0x2e0>

001868c4 <sub_FF99A51C>:
  1868c4:	e59ff334 	ldr	pc, [pc, #820]	; 186c00 <sub_FFAD84D0+0x2e4>

001868c8 <sub_FF99A5BC>:
  1868c8:	e59ff334 	ldr	pc, [pc, #820]	; 186c04 <sub_FFAD84D0+0x2e8>

001868cc <sub_FF99A604>:
  1868cc:	e59ff334 	ldr	pc, [pc, #820]	; 186c08 <sub_FFAD84D0+0x2ec>

001868d0 <sub_FF99AB78>:
  1868d0:	e59ff334 	ldr	pc, [pc, #820]	; 186c0c <sub_FFAD84D0+0x2f0>

001868d4 <sub_FF99B1A0>:
  1868d4:	e59ff334 	ldr	pc, [pc, #820]	; 186c10 <sub_FFAD84D0+0x2f4>

001868d8 <sub_FF99B344>:
  1868d8:	e59ff334 	ldr	pc, [pc, #820]	; 186c14 <sub_FFAD84D0+0x2f8>

001868dc <sub_FF99B80C>:
  1868dc:	e59ff334 	ldr	pc, [pc, #820]	; 186c18 <sub_FFAD84D0+0x2fc>

001868e0 <sub_FF99B878>:
  1868e0:	e59ff334 	ldr	pc, [pc, #820]	; 186c1c <sub_FFAD84D0+0x300>

001868e4 <sub_FF99B8E0>:
  1868e4:	e59ff334 	ldr	pc, [pc, #820]	; 186c20 <sub_FFAD84D0+0x304>

001868e8 <sub_FF99B9A8>:
  1868e8:	e59ff334 	ldr	pc, [pc, #820]	; 186c24 <sub_FFAD84D0+0x308>

001868ec <sub_FF99BAF4>:
  1868ec:	e59ff334 	ldr	pc, [pc, #820]	; 186c28 <sub_FFAD84D0+0x30c>

001868f0 <sub_FF99BB58>:
  1868f0:	e59ff334 	ldr	pc, [pc, #820]	; 186c2c <sub_FFAD84D0+0x310>

001868f4 <sub_FF99C0E4>:
  1868f4:	e59ff334 	ldr	pc, [pc, #820]	; 186c30 <sub_FFAD84D0+0x314>

001868f8 <sub_FF99C1DC>:
  1868f8:	e59ff334 	ldr	pc, [pc, #820]	; 186c34 <sub_FFAD84D0+0x318>

001868fc <sub_FFAB88E4>:
  1868fc:	e59ff334 	ldr	pc, [pc, #820]	; 186c38 <sub_FFAD84D0+0x31c>

00186900 <sub_FFAB8BA0>:
  186900:	e59ff334 	ldr	pc, [pc, #820]	; 186c3c <sub_FFAD84D0+0x320>

00186904 <sub_FFAB8BB0>:
  186904:	e59ff334 	ldr	pc, [pc, #820]	; 186c40 <sub_FFAD84D0+0x324>

00186908 <sub_FFAB8CD0>:
  186908:	e59ff334 	ldr	pc, [pc, #820]	; 186c44 <sub_FFAD84D0+0x328>

0018690c <sub_FFAD3350>:
  18690c:	e59ff334 	ldr	pc, [pc, #820]	; 186c48 <sub_FFAD84D0+0x32c>

00186910 <sub_FFAD78EC>:
  186910:	e59ff334 	ldr	pc, [pc, #820]	; 186c4c <sub_FFAD84D0+0x330>

00186914 <sub_FFAD7C14>:
  186914:	e59ff334 	ldr	pc, [pc, #820]	; 186c50 <sub_FFAD84D0+0x334>

00186918 <sub_FFAD8054>:
  186918:	e59ff334 	ldr	pc, [pc, #820]	; 186c54 <sub_FFAD84D0+0x338>

0018691c <sub_FFAD84D0>:
  18691c:	e59ff334 	ldr	pc, [pc, #820]	; 186c58 <sub_FFAD84D0+0x33c>
  186920:	006b1bc8 	.word	0x006b1bc8
  186924:	006ba828 	.word	0x006ba828
  186928:	006baa10 	.word	0x006baa10
  18692c:	006baaf4 	.word	0x006baaf4
  186930:	ff820858 	.word	0xff820858
  186934:	ff8210a8 	.word	0xff8210a8
  186938:	ff822100 	.word	0xff822100
  18693c:	ff8224e8 	.word	0xff8224e8
  186940:	ff8225c8 	.word	0xff8225c8
  186944:	ff822c7c 	.word	0xff822c7c
  186948:	ff822dcc 	.word	0xff822dcc
  18694c:	ff8234d8 	.word	0xff8234d8
  186950:	ff82534c 	.word	0xff82534c
  186954:	ff82661c 	.word	0xff82661c
  186958:	ff826774 	.word	0xff826774
  18695c:	ff826a9c 	.word	0xff826a9c
  186960:	ff827bc8 	.word	0xff827bc8
  186964:	ff827e74 	.word	0xff827e74
  186968:	ff8281a4 	.word	0xff8281a4
  18696c:	ff829a0c 	.word	0xff829a0c
  186970:	ff829af8 	.word	0xff829af8
  186974:	ff829bc4 	.word	0xff829bc4
  186978:	ff829c0c 	.word	0xff829c0c
  18697c:	ff829e30 	.word	0xff829e30
  186980:	ff82a0ac 	.word	0xff82a0ac
  186984:	ff82a464 	.word	0xff82a464
  186988:	ff82a7ac 	.word	0xff82a7ac
  18698c:	ff82afe0 	.word	0xff82afe0
  186990:	ff82bcf0 	.word	0xff82bcf0
  186994:	ff82c980 	.word	0xff82c980
  186998:	ff82cad8 	.word	0xff82cad8
  18699c:	ff82cb64 	.word	0xff82cb64
  1869a0:	ff82cb8c 	.word	0xff82cb8c
  1869a4:	ff82cbd0 	.word	0xff82cbd0
  1869a8:	ff82cc3c 	.word	0xff82cc3c
  1869ac:	ff82d094 	.word	0xff82d094
  1869b0:	ff82d0e0 	.word	0xff82d0e0
  1869b4:	ff82d134 	.word	0xff82d134
  1869b8:	ff82dcc8 	.word	0xff82dcc8
  1869bc:	ff82ddcc 	.word	0xff82ddcc
  1869c0:	ff82e748 	.word	0xff82e748
  1869c4:	ff82e810 	.word	0xff82e810
  1869c8:	ff82f038 	.word	0xff82f038
  1869cc:	ff82f050 	.word	0xff82f050
  1869d0:	ff82f91c 	.word	0xff82f91c
  1869d4:	ff82ffb8 	.word	0xff82ffb8
  1869d8:	ff8300f8 	.word	0xff8300f8
  1869dc:	ff83222c 	.word	0xff83222c
  1869e0:	ff8328dc 	.word	0xff8328dc
  1869e4:	ff833f7c 	.word	0xff833f7c
  1869e8:	ff834724 	.word	0xff834724
  1869ec:	ff8374c4 	.word	0xff8374c4
  1869f0:	ff83755c 	.word	0xff83755c
  1869f4:	ff83830c 	.word	0xff83830c
  1869f8:	ff838500 	.word	0xff838500
  1869fc:	ff83873c 	.word	0xff83873c
  186a00:	ff838778 	.word	0xff838778
  186a04:	ff838898 	.word	0xff838898
  186a08:	ff838a0c 	.word	0xff838a0c
  186a0c:	ff838ae0 	.word	0xff838ae0
  186a10:	ff838ae8 	.word	0xff838ae8
  186a14:	ff8693a4 	.word	0xff8693a4
  186a18:	ff86ea38 	.word	0xff86ea38
  186a1c:	ff87f79c 	.word	0xff87f79c
  186a20:	ff87f7b4 	.word	0xff87f7b4
  186a24:	ff887a8c 	.word	0xff887a8c
  186a28:	ff887b18 	.word	0xff887b18
  186a2c:	ff887ca4 	.word	0xff887ca4
  186a30:	ff88a030 	.word	0xff88a030
  186a34:	ff88a928 	.word	0xff88a928
  186a38:	ff88ab48 	.word	0xff88ab48
  186a3c:	ff88b2d4 	.word	0xff88b2d4
  186a40:	ff88c004 	.word	0xff88c004
  186a44:	ff88cef8 	.word	0xff88cef8
  186a48:	ff88d288 	.word	0xff88d288
  186a4c:	ff88d290 	.word	0xff88d290
  186a50:	ff88d298 	.word	0xff88d298
  186a54:	ff88d2ac 	.word	0xff88d2ac
  186a58:	ff88d4c8 	.word	0xff88d4c8
  186a5c:	ff88d55c 	.word	0xff88d55c
  186a60:	ff88d604 	.word	0xff88d604
  186a64:	ff88d74c 	.word	0xff88d74c
  186a68:	ff88d7d4 	.word	0xff88d7d4
  186a6c:	ff88dbb8 	.word	0xff88dbb8
  186a70:	ff88dff8 	.word	0xff88dff8
  186a74:	ff88e060 	.word	0xff88e060
  186a78:	ff88e388 	.word	0xff88e388
  186a7c:	ff88e3e4 	.word	0xff88e3e4
  186a80:	ff88e494 	.word	0xff88e494
  186a84:	ff88e860 	.word	0xff88e860
  186a88:	ff88f818 	.word	0xff88f818
  186a8c:	ff8905a0 	.word	0xff8905a0
  186a90:	ff890690 	.word	0xff890690
  186a94:	ff8906e8 	.word	0xff8906e8
  186a98:	ff890820 	.word	0xff890820
  186a9c:	ff890bb8 	.word	0xff890bb8
  186aa0:	ff892098 	.word	0xff892098
  186aa4:	ff8920f4 	.word	0xff8920f4
  186aa8:	ff892150 	.word	0xff892150
  186aac:	ff89237c 	.word	0xff89237c
  186ab0:	ff892778 	.word	0xff892778
  186ab4:	ff893ac8 	.word	0xff893ac8
  186ab8:	ff893ad4 	.word	0xff893ad4
  186abc:	ff89d354 	.word	0xff89d354
  186ac0:	ff89d768 	.word	0xff89d768
  186ac4:	ff89d798 	.word	0xff89d798
  186ac8:	ff8ad8a8 	.word	0xff8ad8a8
  186acc:	ff8b0664 	.word	0xff8b0664
  186ad0:	ff8c32ec 	.word	0xff8c32ec
  186ad4:	ff8c3658 	.word	0xff8c3658
  186ad8:	ff8c3fb0 	.word	0xff8c3fb0
  186adc:	ff8c44d0 	.word	0xff8c44d0
  186ae0:	ff8c8a5c 	.word	0xff8c8a5c
  186ae4:	ff8cb610 	.word	0xff8cb610
  186ae8:	ff8cb6ec 	.word	0xff8cb6ec
  186aec:	ff8cb7c0 	.word	0xff8cb7c0
  186af0:	ff8cbf20 	.word	0xff8cbf20
  186af4:	ff8cc008 	.word	0xff8cc008
  186af8:	ff8cc134 	.word	0xff8cc134
  186afc:	ff8d64ec 	.word	0xff8d64ec
  186b00:	ff8d66cc 	.word	0xff8d66cc
  186b04:	ff8d6724 	.word	0xff8d6724
  186b08:	ff8d677c 	.word	0xff8d677c
  186b0c:	ff8d67d4 	.word	0xff8d67d4
  186b10:	ff8d686c 	.word	0xff8d686c
  186b14:	ff8d69e8 	.word	0xff8d69e8
  186b18:	ff8d6aa0 	.word	0xff8d6aa0
  186b1c:	ff8d6d6c 	.word	0xff8d6d6c
  186b20:	ff8d6fac 	.word	0xff8d6fac
  186b24:	ff8d72f4 	.word	0xff8d72f4
  186b28:	ff8d7524 	.word	0xff8d7524
  186b2c:	ff8d7ae8 	.word	0xff8d7ae8
  186b30:	ff8d8050 	.word	0xff8d8050
  186b34:	ff8d8164 	.word	0xff8d8164
  186b38:	ff8d83c8 	.word	0xff8d83c8
  186b3c:	ff8d8818 	.word	0xff8d8818
  186b40:	ff8d8930 	.word	0xff8d8930
  186b44:	ff8d8cc8 	.word	0xff8d8cc8
  186b48:	ff8d8f38 	.word	0xff8d8f38
  186b4c:	ff8d9104 	.word	0xff8d9104
  186b50:	ff8d927c 	.word	0xff8d927c
  186b54:	ff8d949c 	.word	0xff8d949c
  186b58:	ff8d970c 	.word	0xff8d970c
  186b5c:	ff8dad5c 	.word	0xff8dad5c
  186b60:	ff8dafe0 	.word	0xff8dafe0
  186b64:	ff8db050 	.word	0xff8db050
  186b68:	ff8dc8f0 	.word	0xff8dc8f0
  186b6c:	ff8dc954 	.word	0xff8dc954
  186b70:	ff8dc970 	.word	0xff8dc970
  186b74:	ff8dc9b4 	.word	0xff8dc9b4
  186b78:	ff8dcae8 	.word	0xff8dcae8
  186b7c:	ff8dcb94 	.word	0xff8dcb94
  186b80:	ff8dcc3c 	.word	0xff8dcc3c
  186b84:	ff8dce6c 	.word	0xff8dce6c
  186b88:	ff90cf8c 	.word	0xff90cf8c
  186b8c:	ff90f658 	.word	0xff90f658
  186b90:	ff957490 	.word	0xff957490
  186b94:	ff994ed4 	.word	0xff994ed4
  186b98:	ff994ff8 	.word	0xff994ff8
  186b9c:	ff995164 	.word	0xff995164
  186ba0:	ff9952a4 	.word	0xff9952a4
  186ba4:	ff995644 	.word	0xff995644
  186ba8:	ff9966d4 	.word	0xff9966d4
  186bac:	ff9992c0 	.word	0xff9992c0
  186bb0:	ff9994f8 	.word	0xff9994f8
  186bb4:	ff9995b4 	.word	0xff9995b4
  186bb8:	ff99968c 	.word	0xff99968c
  186bbc:	ff99975c 	.word	0xff99975c
  186bc0:	ff99979c 	.word	0xff99979c
  186bc4:	ff9998f4 	.word	0xff9998f4
  186bc8:	ff999a54 	.word	0xff999a54
  186bcc:	ff999af0 	.word	0xff999af0
  186bd0:	ff999b9c 	.word	0xff999b9c
  186bd4:	ff999cac 	.word	0xff999cac
  186bd8:	ff999d34 	.word	0xff999d34
  186bdc:	ff999dc0 	.word	0xff999dc0
  186be0:	ff999e38 	.word	0xff999e38
  186be4:	ff999ec4 	.word	0xff999ec4
  186be8:	ff99a2e0 	.word	0xff99a2e0
  186bec:	ff99a30c 	.word	0xff99a30c
  186bf0:	ff99a334 	.word	0xff99a334
  186bf4:	ff99a378 	.word	0xff99a378
  186bf8:	ff99a3f4 	.word	0xff99a3f4
  186bfc:	ff99a48c 	.word	0xff99a48c
  186c00:	ff99a51c 	.word	0xff99a51c
  186c04:	ff99a5bc 	.word	0xff99a5bc
  186c08:	ff99a604 	.word	0xff99a604
  186c0c:	ff99ab78 	.word	0xff99ab78
  186c10:	ff99b1a0 	.word	0xff99b1a0
  186c14:	ff99b344 	.word	0xff99b344
  186c18:	ff99b80c 	.word	0xff99b80c
  186c1c:	ff99b878 	.word	0xff99b878
  186c20:	ff99b8e0 	.word	0xff99b8e0
  186c24:	ff99b9a8 	.word	0xff99b9a8
  186c28:	ff99baf4 	.word	0xff99baf4
  186c2c:	ff99bb58 	.word	0xff99bb58
  186c30:	ff99c0e4 	.word	0xff99c0e4
  186c34:	ff99c1dc 	.word	0xff99c1dc
  186c38:	ffab88e4 	.word	0xffab88e4
  186c3c:	ffab8ba0 	.word	0xffab8ba0
  186c40:	ffab8bb0 	.word	0xffab8bb0
  186c44:	ffab8cd0 	.word	0xffab8cd0
  186c48:	ffad3350 	.word	0xffad3350
  186c4c:	ffad78ec 	.word	0xffad78ec
  186c50:	ffad7c14 	.word	0xffad7c14
  186c54:	ffad8054 	.word	0xffad8054
  186c58:	ffad84d0 	.word	0xffad84d0

00186c5c <uiprop_count>:
  186c5c:	000000c6 	.word	0x000000c6

00186c60 <_AllocateUncacheableMemory>:
  186c60:	e59ff218 	ldr	pc, [pc, #536]	; 186e80 <_GetAdChValue+0x4>

00186c64 <_Close>:
  186c64:	e59ff218 	ldr	pc, [pc, #536]	; 186e84 <_GetAdChValue+0x8>

00186c68 <_CreateTask>:
  186c68:	e59ff218 	ldr	pc, [pc, #536]	; 186e88 <_GetAdChValue+0xc>

00186c6c <_DebugAssert>:
  186c6c:	e59ff218 	ldr	pc, [pc, #536]	; 186e8c <_GetAdChValue+0x10>

00186c70 <_DeleteDirectory_Fut>:
  186c70:	e59ff218 	ldr	pc, [pc, #536]	; 186e90 <_GetAdChValue+0x14>

00186c74 <_DoAELock>:
  186c74:	e59ff218 	ldr	pc, [pc, #536]	; 186e94 <_GetAdChValue+0x18>

00186c78 <_DoAFLock>:
  186c78:	e59ff218 	ldr	pc, [pc, #536]	; 186e98 <_GetAdChValue+0x1c>

00186c7c <_EnterToCompensationEVF>:
  186c7c:	e59ff218 	ldr	pc, [pc, #536]	; 186e9c <_GetAdChValue+0x20>

00186c80 <_ExecuteEventProcedure>:
  186c80:	e59ff218 	ldr	pc, [pc, #536]	; 186ea0 <_GetAdChValue+0x24>

00186c84 <_ExitFromCompensationEVF>:
  186c84:	e59ff218 	ldr	pc, [pc, #536]	; 186ea4 <_GetAdChValue+0x28>

00186c88 <_ExitTask>:
  186c88:	e59ff218 	ldr	pc, [pc, #536]	; 186ea8 <_GetAdChValue+0x2c>

00186c8c <_ExpCtrlTool_StartContiAE>:
  186c8c:	e59ff218 	ldr	pc, [pc, #536]	; 186eac <_GetAdChValue+0x30>

00186c90 <_ExpCtrlTool_StopContiAE>:
  186c90:	e59ff218 	ldr	pc, [pc, #536]	; 186eb0 <_GetAdChValue+0x34>

00186c94 <_Fclose_Fut>:
  186c94:	e59ff218 	ldr	pc, [pc, #536]	; 186eb4 <_GetAdChValue+0x38>

00186c98 <_Feof_Fut>:
  186c98:	e59ff218 	ldr	pc, [pc, #536]	; 186eb8 <_GetAdChValue+0x3c>

00186c9c <_Fflush_Fut>:
  186c9c:	e59ff218 	ldr	pc, [pc, #536]	; 186ebc <_GetAdChValue+0x40>

00186ca0 <_Fgets_Fut>:
  186ca0:	e59ff218 	ldr	pc, [pc, #536]	; 186ec0 <_GetAdChValue+0x44>

00186ca4 <_Fopen_Fut>:
  186ca4:	e59ff218 	ldr	pc, [pc, #536]	; 186ec4 <_GetAdChValue+0x48>

00186ca8 <_Fread_Fut>:
  186ca8:	e59ff218 	ldr	pc, [pc, #536]	; 186ec8 <_GetAdChValue+0x4c>

00186cac <_FreeUncacheableMemory>:
  186cac:	e59ff218 	ldr	pc, [pc, #536]	; 186ecc <_GetAdChValue+0x50>

00186cb0 <_Fseek_Fut>:
  186cb0:	e59ff218 	ldr	pc, [pc, #536]	; 186ed0 <_GetAdChValue+0x54>

00186cb4 <_Fwrite_Fut>:
  186cb4:	e59ff218 	ldr	pc, [pc, #536]	; 186ed4 <_GetAdChValue+0x58>

00186cb8 <_GetCurrentAvValue>:
  186cb8:	e59ff218 	ldr	pc, [pc, #536]	; 186ed8 <_GetAdChValue+0x5c>

00186cbc <_GetDrive_ClusterSize>:
  186cbc:	e59ff218 	ldr	pc, [pc, #536]	; 186edc <_GetAdChValue+0x60>

00186cc0 <_GetDrive_FreeClusters>:
  186cc0:	e59ff218 	ldr	pc, [pc, #536]	; 186ee0 <_GetAdChValue+0x64>

00186cc4 <_GetDrive_TotalClusters>:
  186cc4:	e59ff218 	ldr	pc, [pc, #536]	; 186ee4 <_GetAdChValue+0x68>

00186cc8 <_GetFocusLensSubjectDistance>:
  186cc8:	e59ff218 	ldr	pc, [pc, #536]	; 186ee8 <_GetAdChValue+0x6c>

00186ccc <_GetImageFolder>:
  186ccc:	e59ff218 	ldr	pc, [pc, #536]	; 186eec <_GetAdChValue+0x70>

00186cd0 <_GetKbdState>:
  186cd0:	e59ff218 	ldr	pc, [pc, #536]	; 186ef0 <_GetAdChValue+0x74>

00186cd4 <_GetMemInfo>:
  186cd4:	e59ff218 	ldr	pc, [pc, #536]	; 186ef4 <_GetAdChValue+0x78>

00186cd8 <_GetParameterData>:
  186cd8:	e59ff218 	ldr	pc, [pc, #536]	; 186ef8 <_GetAdChValue+0x7c>

00186cdc <_GetPropertyCase>:
  186cdc:	e59ff218 	ldr	pc, [pc, #536]	; 186efc <_GetAdChValue+0x80>

00186ce0 <_GetSystemTime>:
  186ce0:	e59ff218 	ldr	pc, [pc, #536]	; 186f00 <_GetAdChValue+0x84>

00186ce4 <_GetVRAMHPixelsSize>:
  186ce4:	e59ff218 	ldr	pc, [pc, #536]	; 186f04 <_GetAdChValue+0x88>

00186ce8 <_GetVRAMVPixelsSize>:
  186ce8:	e59ff218 	ldr	pc, [pc, #536]	; 186f08 <_GetAdChValue+0x8c>

00186cec <_GetZoomLensCurrentPoint>:
  186cec:	e59ff218 	ldr	pc, [pc, #536]	; 186f0c <_GetAdChValue+0x90>

00186cf0 <_GetZoomLensCurrentPosition>:
  186cf0:	e59ff218 	ldr	pc, [pc, #536]	; 186f10 <_GetAdChValue+0x94>

00186cf4 <_GiveSemaphore>:
  186cf4:	e59ff218 	ldr	pc, [pc, #536]	; 186f14 <_GetAdChValue+0x98>

00186cf8 <_IsStrobeChargeCompleted>:
  186cf8:	e59ff218 	ldr	pc, [pc, #536]	; 186f18 <_GetAdChValue+0x9c>

00186cfc <_LEDDrive>:
  186cfc:	e59ff218 	ldr	pc, [pc, #536]	; 186f1c <_GetAdChValue+0xa0>

00186d00 <_LocalTime>:
  186d00:	e59ff218 	ldr	pc, [pc, #536]	; 186f20 <_GetAdChValue+0xa4>

00186d04 <_LockMainPower>:
  186d04:	e59ff218 	ldr	pc, [pc, #536]	; 186f24 <_GetAdChValue+0xa8>

00186d08 <_MakeSDCardBootable>:
  186d08:	e59ff218 	ldr	pc, [pc, #536]	; 186f28 <_GetAdChValue+0xac>

00186d0c <_MoveFocusLensToDistance>:
  186d0c:	e59ff218 	ldr	pc, [pc, #536]	; 186f2c <_GetAdChValue+0xb0>

00186d10 <_MoveIrisWithAv>:
  186d10:	e59ff218 	ldr	pc, [pc, #536]	; 186f30 <_GetAdChValue+0xb4>

00186d14 <_MoveZoomLensWithPoint>:
  186d14:	e59ff218 	ldr	pc, [pc, #536]	; 186f34 <_GetAdChValue+0xb8>

00186d18 <_Open>:
  186d18:	e59ff218 	ldr	pc, [pc, #536]	; 186f38 <_GetAdChValue+0xbc>

00186d1c <_PB2Rec>:
  186d1c:	e59ff218 	ldr	pc, [pc, #536]	; 186f3c <_GetAdChValue+0xc0>

00186d20 <_PT_MoveDigitalZoomToWide>:
  186d20:	e59ff218 	ldr	pc, [pc, #536]	; 186f40 <_GetAdChValue+0xc4>

00186d24 <_PT_MoveOpticalZoomAt>:
  186d24:	e59ff218 	ldr	pc, [pc, #536]	; 186f44 <_GetAdChValue+0xc8>

00186d28 <_PT_PlaySound>:
  186d28:	e59ff218 	ldr	pc, [pc, #536]	; 186f48 <_GetAdChValue+0xcc>

00186d2c <_PostLogicalEventForNotPowerType>:
  186d2c:	e59ff218 	ldr	pc, [pc, #536]	; 186f4c <_GetAdChValue+0xd0>

00186d30 <_PostLogicalEventToUI>:
  186d30:	e59ff218 	ldr	pc, [pc, #536]	; 186f50 <_GetAdChValue+0xd4>

00186d34 <_PutInNdFilter>:
  186d34:	e59ff218 	ldr	pc, [pc, #536]	; 186f54 <_GetAdChValue+0xd8>

00186d38 <_PutOutNdFilter>:
  186d38:	e59ff218 	ldr	pc, [pc, #536]	; 186f58 <_GetAdChValue+0xdc>

00186d3c <_Read>:
  186d3c:	e59ff218 	ldr	pc, [pc, #536]	; 186f5c <_GetAdChValue+0xe0>

00186d40 <_ReadFastDir>:
  186d40:	e59ff218 	ldr	pc, [pc, #536]	; 186f60 <_GetAdChValue+0xe4>

00186d44 <_Rec2PB>:
  186d44:	e59ff218 	ldr	pc, [pc, #536]	; 186f64 <_GetAdChValue+0xe8>

00186d48 <_RenameFile_Fut>:
  186d48:	e59ff218 	ldr	pc, [pc, #536]	; 186f68 <_GetAdChValue+0xec>

00186d4c <_Restart>:
  186d4c:	e59ff218 	ldr	pc, [pc, #536]	; 186f6c <_GetAdChValue+0xf0>

00186d50 <_ScreenLock>:
  186d50:	e59ff218 	ldr	pc, [pc, #536]	; 186f70 <_GetAdChValue+0xf4>

00186d54 <_ScreenUnlock>:
  186d54:	e59ff218 	ldr	pc, [pc, #536]	; 186f74 <_GetAdChValue+0xf8>

00186d58 <_SetAE_ShutterSpeed>:
  186d58:	e59ff218 	ldr	pc, [pc, #536]	; 186f78 <_GetAdChValue+0xfc>

00186d5c <_SetAutoShutdownTime>:
  186d5c:	e59ff218 	ldr	pc, [pc, #536]	; 186f7c <_GetAdChValue+0x100>

00186d60 <_SetCurrentCaptureModeType>:
  186d60:	e59ff218 	ldr	pc, [pc, #536]	; 186f80 <_GetAdChValue+0x104>

00186d64 <_SetFileAttributes>:
  186d64:	e59ff218 	ldr	pc, [pc, #536]	; 186f84 <_GetAdChValue+0x108>

00186d68 <_SetFileTimeStamp>:
  186d68:	e59ff218 	ldr	pc, [pc, #536]	; 186f88 <_GetAdChValue+0x10c>

00186d6c <_SetLogicalEventActive>:
  186d6c:	e59ff218 	ldr	pc, [pc, #536]	; 186f8c <_GetAdChValue+0x110>

00186d70 <_SetParameterData>:
  186d70:	e59ff218 	ldr	pc, [pc, #536]	; 186f90 <_GetAdChValue+0x114>

00186d74 <_SetPropertyCase>:
  186d74:	e59ff218 	ldr	pc, [pc, #536]	; 186f94 <_GetAdChValue+0x118>

00186d78 <_SetScriptMode>:
  186d78:	e59ff218 	ldr	pc, [pc, #536]	; 186f98 <_GetAdChValue+0x11c>

00186d7c <_SleepTask>:
  186d7c:	e59ff218 	ldr	pc, [pc, #536]	; 186f9c <_GetAdChValue+0x120>

00186d80 <_TakeSemaphore>:
  186d80:	e59ff218 	ldr	pc, [pc, #536]	; 186fa0 <_GetAdChValue+0x124>

00186d84 <_TurnOffBackLight>:
  186d84:	e59ff218 	ldr	pc, [pc, #536]	; 186fa4 <_GetAdChValue+0x128>

00186d88 <_TurnOnBackLight>:
  186d88:	e59ff218 	ldr	pc, [pc, #536]	; 186fa8 <_GetAdChValue+0x12c>

00186d8c <_TurnOnDisplay>:
  186d8c:	e59ff218 	ldr	pc, [pc, #536]	; 186fac <_GetAdChValue+0x130>

00186d90 <_TurnOffDisplay>:
  186d90:	e59ff218 	ldr	pc, [pc, #536]	; 186fb0 <_GetAdChValue+0x134>

00186d94 <_UIFS_WriteFirmInfoToFile>:
  186d94:	e59ff218 	ldr	pc, [pc, #536]	; 186fb4 <_GetAdChValue+0x138>

00186d98 <_UnlockAE>:
  186d98:	e59ff218 	ldr	pc, [pc, #536]	; 186fb8 <_GetAdChValue+0x13c>

00186d9c <_UnlockAF>:
  186d9c:	e59ff218 	ldr	pc, [pc, #536]	; 186fbc <_GetAdChValue+0x140>

00186da0 <_UnlockMainPower>:
  186da0:	e59ff218 	ldr	pc, [pc, #536]	; 186fc0 <_GetAdChValue+0x144>

00186da4 <_VbattGet>:
  186da4:	e59ff218 	ldr	pc, [pc, #536]	; 186fc4 <_GetAdChValue+0x148>

00186da8 <_Write>:
  186da8:	e59ff218 	ldr	pc, [pc, #536]	; 186fc8 <_GetAdChValue+0x14c>

00186dac <_WriteSDCard>:
  186dac:	e59ff218 	ldr	pc, [pc, #536]	; 186fcc <_GetAdChValue+0x150>

00186db0 <__log>:
  186db0:	e59ff218 	ldr	pc, [pc, #536]	; 186fd0 <_GetAdChValue+0x154>

00186db4 <__pow>:
  186db4:	e59ff218 	ldr	pc, [pc, #536]	; 186fd4 <_GetAdChValue+0x158>

00186db8 <__sqrt>:
  186db8:	e59ff218 	ldr	pc, [pc, #536]	; 186fd8 <_GetAdChValue+0x15c>

00186dbc <_add_ptp_handler>:
  186dbc:	e59ff218 	ldr	pc, [pc, #536]	; 186fdc <_GetAdChValue+0x160>

00186dc0 <_apex2us>:
  186dc0:	e59ff218 	ldr	pc, [pc, #536]	; 186fe0 <_GetAdChValue+0x164>

00186dc4 <_close>:
  186dc4:	e59ff218 	ldr	pc, [pc, #536]	; 186fe4 <_GetAdChValue+0x168>

00186dc8 <_err_init_task>:
  186dc8:	e59ff218 	ldr	pc, [pc, #536]	; 186fe8 <_GetAdChValue+0x16c>

00186dcc <_exmem_alloc>:
  186dcc:	e59ff218 	ldr	pc, [pc, #536]	; 186fec <_GetAdChValue+0x170>

00186dd0 <_exmem_free>:
  186dd0:	e59ff218 	ldr	pc, [pc, #536]	; 186ff0 <_GetAdChValue+0x174>

00186dd4 <_free>:
  186dd4:	e59ff218 	ldr	pc, [pc, #536]	; 186ff4 <_GetAdChValue+0x178>

00186dd8 <_kbd_p1_f>:
  186dd8:	e59ff218 	ldr	pc, [pc, #536]	; 186ff8 <_GetAdChValue+0x17c>

00186ddc <_kbd_p1_f_cont>:
  186ddc:	e59ff218 	ldr	pc, [pc, #536]	; 186ffc <_GetAdChValue+0x180>

00186de0 <_kbd_p2_f>:
  186de0:	e59ff218 	ldr	pc, [pc, #536]	; 187000 <_GetAdChValue+0x184>

00186de4 <_kbd_read_keys>:
  186de4:	e59ff218 	ldr	pc, [pc, #536]	; 187004 <_GetAdChValue+0x188>

00186de8 <_kbd_read_keys_r2>:
  186de8:	e59ff218 	ldr	pc, [pc, #536]	; 187008 <_GetAdChValue+0x18c>

00186dec <_lseek>:
  186dec:	e59ff218 	ldr	pc, [pc, #536]	; 18700c <_GetAdChValue+0x190>

00186df0 <_malloc>:
  186df0:	e59ff218 	ldr	pc, [pc, #536]	; 187010 <_GetAdChValue+0x194>

00186df4 <_memcmp>:
  186df4:	e59ff218 	ldr	pc, [pc, #536]	; 187014 <_GetAdChValue+0x198>

00186df8 <_memcpy>:
  186df8:	e59ff218 	ldr	pc, [pc, #536]	; 187018 <_GetAdChValue+0x19c>

00186dfc <_memset>:
  186dfc:	e59ff218 	ldr	pc, [pc, #536]	; 18701c <_GetAdChValue+0x1a0>

00186e00 <_mkdir>:
  186e00:	e59ff218 	ldr	pc, [pc, #536]	; 187020 <_GetAdChValue+0x1a4>

00186e04 <_mktime_ext>:
  186e04:	e59ff218 	ldr	pc, [pc, #536]	; 187024 <_GetAdChValue+0x1a8>

00186e08 <_open>:
  186e08:	e59ff218 	ldr	pc, [pc, #536]	; 187028 <_GetAdChValue+0x1ac>

00186e0c <_OpenFastDir>:
  186e0c:	e59ff218 	ldr	pc, [pc, #536]	; 18702c <_GetAdChValue+0x1b0>

00186e10 <_closedir>:
  186e10:	e59ff218 	ldr	pc, [pc, #536]	; 187030 <_GetAdChValue+0x1b4>

00186e14 <_get_fstype>:
  186e14:	e59ff218 	ldr	pc, [pc, #536]	; 187034 <_GetAdChValue+0x1b8>

00186e18 <_qsort>:
  186e18:	e59ff218 	ldr	pc, [pc, #536]	; 187038 <_GetAdChValue+0x1bc>

00186e1c <_rand>:
  186e1c:	e59ff218 	ldr	pc, [pc, #536]	; 18703c <_GetAdChValue+0x1c0>

00186e20 <_realloc>:
  186e20:	e59ff218 	ldr	pc, [pc, #536]	; 187040 <_GetAdChValue+0x1c4>

00186e24 <_reboot_fw_update>:
  186e24:	e59ff218 	ldr	pc, [pc, #536]	; 187044 <_GetAdChValue+0x1c8>

00186e28 <_set_control_event>:
  186e28:	e59ff218 	ldr	pc, [pc, #536]	; 187048 <_GetAdChValue+0x1cc>

00186e2c <_srand>:
  186e2c:	e59ff218 	ldr	pc, [pc, #536]	; 18704c <_GetAdChValue+0x1d0>

00186e30 <_stat>:
  186e30:	e59ff218 	ldr	pc, [pc, #536]	; 187050 <_GetAdChValue+0x1d4>

00186e34 <_strcat>:
  186e34:	e59ff218 	ldr	pc, [pc, #536]	; 187054 <_GetAdChValue+0x1d8>

00186e38 <_strchr>:
  186e38:	e59ff218 	ldr	pc, [pc, #536]	; 187058 <_GetAdChValue+0x1dc>

00186e3c <_strcmp>:
  186e3c:	e59ff218 	ldr	pc, [pc, #536]	; 18705c <_GetAdChValue+0x1e0>

00186e40 <_strcpy>:
  186e40:	e59ff218 	ldr	pc, [pc, #536]	; 187060 <_GetAdChValue+0x1e4>

00186e44 <_strftime>:
  186e44:	e59ff218 	ldr	pc, [pc, #536]	; 187064 <_GetAdChValue+0x1e8>

00186e48 <_strlen>:
  186e48:	e59ff218 	ldr	pc, [pc, #536]	; 187068 <_GetAdChValue+0x1ec>

00186e4c <_strncmp>:
  186e4c:	e59ff218 	ldr	pc, [pc, #536]	; 18706c <_GetAdChValue+0x1f0>

00186e50 <_strncpy>:
  186e50:	e59ff218 	ldr	pc, [pc, #536]	; 187070 <_GetAdChValue+0x1f4>

00186e54 <_strrchr>:
  186e54:	e59ff218 	ldr	pc, [pc, #536]	; 187074 <_GetAdChValue+0x1f8>

00186e58 <_strtol>:
  186e58:	e59ff218 	ldr	pc, [pc, #536]	; 187078 <_GetAdChValue+0x1fc>

00186e5c <_strtolx>:
  186e5c:	e59ff218 	ldr	pc, [pc, #536]	; 18707c <_GetAdChValue+0x200>

00186e60 <_vsprintf>:
  186e60:	e59ff218 	ldr	pc, [pc, #536]	; 187080 <_GetAdChValue+0x204>

00186e64 <_EngDrvRead>:
  186e64:	e59ff218 	ldr	pc, [pc, #536]	; 187084 <_GetAdChValue+0x208>

00186e68 <_PTM_GetCurrentItem>:
  186e68:	e59ff218 	ldr	pc, [pc, #536]	; 187088 <_GetAdChValue+0x20c>

00186e6c <_CancelHPTimer>:
  186e6c:	e59ff218 	ldr	pc, [pc, #536]	; 18708c <_GetAdChValue+0x210>

00186e70 <_SetHPTimerAfterNow>:
  186e70:	e59ff218 	ldr	pc, [pc, #536]	; 187090 <_GetAdChValue+0x214>

00186e74 <_SS_MFOn>:
  186e74:	e59ff218 	ldr	pc, [pc, #536]	; 187094 <_GetAdChValue+0x218>

00186e78 <_SS_MFOff>:
  186e78:	e59ff218 	ldr	pc, [pc, #536]	; 187098 <_GetAdChValue+0x21c>

00186e7c <_GetAdChValue>:
  186e7c:	e59ff218 	ldr	pc, [pc, #536]	; 18709c <_GetAdChValue+0x220>
  186e80:	ff8261f4 	.word	0xff8261f4
  186e84:	ff827b18 	.word	0xff827b18
  186e88:	ff824a30 	.word	0xff824a30
  186e8c:	ff824ddc 	.word	0xff824ddc
  186e90:	ff827518 	.word	0xff827518
  186e94:	ff833690 	.word	0xff833690
  186e98:	ff833354 	.word	0xff833354
  186e9c:	ff8335f4 	.word	0xff8335f4
  186ea0:	ff8353c0 	.word	0xff8353c0
  186ea4:	ff83363c 	.word	0xff83363c
  186ea8:	ff824d78 	.word	0xff824d78
  186eac:	ff84393c 	.word	0xff84393c
  186eb0:	ff843ad4 	.word	0xff843ad4
  186eb4:	ff8275b0 	.word	0xff8275b0
  186eb8:	ff82779c 	.word	0xff82779c
  186ebc:	ff8277d8 	.word	0xff8277d8
  186ec0:	ff827704 	.word	0xff827704
  186ec4:	ff827570 	.word	0xff827570
  186ec8:	ff82765c 	.word	0xff82765c
  186ecc:	ff826230 	.word	0xff826230
  186ed0:	ff827750 	.word	0xff827750
  186ed4:	ff8276b0 	.word	0xff8276b0
  186ed8:	ff887d20 	.word	0xff887d20
  186edc:	ff831724 	.word	0xff831724
  186ee0:	ff831f30 	.word	0xff831f30
  186ee4:	ff831f04 	.word	0xff831f04
  186ee8:	ff98dbb0 	.word	0xff98dbb0
  186eec:	ff9719f4 	.word	0xff9719f4
  186ef0:	ff86b89c 	.word	0xff86b89c
  186ef4:	ff823400 	.word	0xff823400
  186ef8:	ff9af504 	.word	0xff9af504
  186efc:	ff89cf04 	.word	0xff89cf04
  186f00:	ffadacc0 	.word	0xffadacc0
  186f04:	ff84fb9c 	.word	0xff84fb9c
  186f08:	ff84fba8 	.word	0xff84fba8
  186f0c:	ff9907e8 	.word	0xff9907e8
  186f10:	ffacb53c 	.word	0xffacb53c
  186f14:	ff82654c 	.word	0xff82654c
  186f18:	ff8e4df8 	.word	0xff8e4df8
  186f1c:	ff9969d8 	.word	0xff9969d8
  186f20:	ff83e030 	.word	0xff83e030
  186f24:	ff89f850 	.word	0xff89f850
  186f28:	ff8322f8 	.word	0xff8322f8
  186f2c:	ffb7e888 	.word	0xffb7e888
  186f30:	ffad5c9c 	.word	0xffad5c9c
  186f34:	ffad65e0 	.word	0xffad65e0
  186f38:	ff827a50 	.word	0xff827a50
  186f3c:	ff85a294 	.word	0xff85a294
  186f40:	ff997b58 	.word	0xff997b58
  186f44:	ff997b28 	.word	0xff997b28
  186f48:	ff8ad134 	.word	0xff8ad134
  186f4c:	ff89ed9c 	.word	0xff89ed9c
  186f50:	ff89ede8 	.word	0xff89ede8
  186f54:	ffad63a0 	.word	0xffad63a0
  186f58:	ffad63c4 	.word	0xffad63c4
  186f5c:	ff823ebc 	.word	0xff823ebc
  186f60:	ffaba2a4 	.word	0xffaba2a4
  186f64:	ff85897c 	.word	0xff85897c
  186f68:	ff827410 	.word	0xff827410
  186f6c:	ff83846c 	.word	0xff83846c
  186f70:	ff8a3200 	.word	0xff8a3200
  186f74:	ff8a325c 	.word	0xff8a325c
  186f78:	ffb79db8 	.word	0xffb79db8
  186f7c:	ff89f8c4 	.word	0xff89f8c4
  186f80:	ff8a9e5c 	.word	0xff8a9e5c
  186f84:	ff827f1c 	.word	0xff827f1c
  186f88:	ff827ea4 	.word	0xff827ea4
  186f8c:	ff89f444 	.word	0xff89f444
  186f90:	ff9af468 	.word	0xff9af468
  186f94:	ff89cd2c 	.word	0xff89cd2c
  186f98:	ff89f498 	.word	0xff89f498
  186f9c:	ff82a760 	.word	0xff82a760
  186fa0:	ff826474 	.word	0xff826474
  186fa4:	ff8ac83c 	.word	0xff8ac83c
  186fa8:	ff8ac824 	.word	0xff8ac824
  186fac:	ff8666b0 	.word	0xff8666b0
  186fb0:	ff8666c0 	.word	0xff8666c0
  186fb4:	ff9ccbb8 	.word	0xff9ccbb8
  186fb8:	ff8336b4 	.word	0xff8336b4
  186fbc:	ff833384 	.word	0xff833384
  186fc0:	ff89f7a8 	.word	0xff89f7a8
  186fc4:	ff82cab0 	.word	0xff82cab0
  186fc8:	ff827b6c 	.word	0xff827b6c
  186fcc:	ff881a2c 	.word	0xff881a2c
  186fd0:	006bb388 	.word	0x006bb388
  186fd4:	006bba40 	.word	0x006bba40
  186fd8:	006bd6e0 	.word	0x006bd6e0
  186fdc:	ffa714d4 	.word	0xffa714d4
  186fe0:	ffa215e8 	.word	0xffa215e8
  186fe4:	ff823d18 	.word	0xff823d18
  186fe8:	ff824798 	.word	0xff824798
  186fec:	ff834fa8 	.word	0xff834fa8
  186ff0:	ff835010 	.word	0xff835010
  186ff4:	ff825628 	.word	0xff825628
  186ff8:	ff82dce8 	.word	0xff82dce8
  186ffc:	ff82dcf4 	.word	0xff82dcf4
  187000:	ff82d460 	.word	0xff82d460
  187004:	ff82dc98 	.word	0xff82dc98
  187008:	ff86b35c 	.word	0xff86b35c
  18700c:	ff827d34 	.word	0xff827d34
  187010:	ff8255d0 	.word	0xff8255d0
  187014:	ff8253a8 	.word	0xff8253a8
  187018:	ff8b0f4c 	.word	0xff8b0f4c
  18701c:	ffa1b600 	.word	0xffa1b600
  187020:	ff827fb4 	.word	0xff827fb4
  187024:	ff8b07d4 	.word	0xff8b07d4
  187028:	ff823c68 	.word	0xff823c68
  18702c:	ffaba150 	.word	0xffaba150
  187030:	ffaba100 	.word	0xffaba100
  187034:	ff83169c 	.word	0xff83169c
  187038:	ffb3476c 	.word	0xffb3476c
  18703c:	ffa1b5d0 	.word	0xffa1b5d0
  187040:	ffa1b67c 	.word	0xffa1b67c
  187044:	ffada374 	.word	0xffada374
  187048:	ff89f104 	.word	0xff89f104
  18704c:	ffa1b5c4 	.word	0xffa1b5c4
  187050:	ff827d7c 	.word	0xff827d7c
  187054:	ff838e14 	.word	0xff838e14
  187058:	ff838e9c 	.word	0xff838e9c
  18705c:	ff8254a4 	.word	0xff8254a4
  187060:	ff825390 	.word	0xff825390
  187064:	ff8b0820 	.word	0xff8b0820
  187068:	ff8254e8 	.word	0xff8254e8
  18706c:	ff838e50 	.word	0xff838e50
  187070:	ff8286ac 	.word	0xff8286ac
  187074:	ff8b1098 	.word	0xff8b1098
  187078:	ff838e00 	.word	0xff838e00
  18707c:	ff838c04 	.word	0xff838c04
  187080:	ff82866c 	.word	0xff82866c
  187084:	ff82ddf8 	.word	0xff82ddf8
  187088:	ff8a1464 	.word	0xff8a1464
  18708c:	ff899668 	.word	0xff899668
  187090:	ff899560 	.word	0xff899560
  187094:	ff997bec 	.word	0xff997bec
  187098:	ff997bfc 	.word	0xff997bfc
  18709c:	ff8678ec 	.word	0xff8678ec

001870a0 <capt_seq_hook_raw_here>:
  1870a0:	e92d5fff 	push	{r0, r1, r2, r3, r4, r5, r6, r7, r8, r9, sl, fp, ip, lr}
  1870a4:	e59f3080 	ldr	r3, [pc, #128]	; 18712c <capt_seq_hook_raw_here+0x8c>
  1870a8:	e5933004 	ldr	r3, [r3, #4]
  1870ac:	e3530000 	cmp	r3, #0
  1870b0:	0a000002 	beq	1870c0 <capt_seq_hook_raw_here+0x20>
  1870b4:	eb00532d 	bl	19bd70 <__is_raw_enabled_from_arm>
  1870b8:	e3500000 	cmp	r0, #0
  1870bc:	1a000002 	bne	1870cc <capt_seq_hook_raw_here+0x2c>
  1870c0:	eb00532d 	bl	19bd7c <__remotecap_get_target_from_arm>
  1870c4:	e3500000 	cmp	r0, #0
  1870c8:	0a00000c 	beq	187100 <capt_seq_hook_raw_here+0x60>
  1870cc:	eb00532d 	bl	19bd88 <__get_file_counter_from_arm>
  1870d0:	e1a05000 	mov	r5, r0
  1870d4:	eb004dcf 	bl	19a818 <get_tick_count>
  1870d8:	e28040c8 	add	r4, r0, #200	; 0xc8
  1870dc:	ea000001 	b	1870e8 <capt_seq_hook_raw_here+0x48>
  1870e0:	e3a0000a 	mov	r0, #10
  1870e4:	ebffff24 	bl	186d7c <_SleepTask>
  1870e8:	eb005326 	bl	19bd88 <__get_file_counter_from_arm>
  1870ec:	e1500005 	cmp	r0, r5
  1870f0:	1a000002 	bne	187100 <capt_seq_hook_raw_here+0x60>
  1870f4:	eb004dc7 	bl	19a818 <get_tick_count>
  1870f8:	e1500004 	cmp	r0, r4
  1870fc:	bafffff7 	blt	1870e0 <capt_seq_hook_raw_here+0x40>
  187100:	e59f4028 	ldr	r4, [pc, #40]	; 187130 <capt_seq_hook_raw_here+0x90>
  187104:	e3a03001 	mov	r3, #1
  187108:	e5843000 	str	r3, [r4]
  18710c:	eb005320 	bl	19bd94 <__core_rawdata_available_from_arm>
  187110:	ea000001 	b	18711c <capt_seq_hook_raw_here+0x7c>
  187114:	e3a0000a 	mov	r0, #10
  187118:	ebffff17 	bl	186d7c <_SleepTask>
  18711c:	e5943000 	ldr	r3, [r4]
  187120:	e3530002 	cmp	r3, #2
  187124:	1afffffa 	bne	187114 <capt_seq_hook_raw_here+0x74>
  187128:	e8bd9fff 	pop	{r0, r1, r2, r3, r4, r5, r6, r7, r8, r9, sl, fp, ip, pc}
  18712c:	001a3440 	.word	0x001a3440
  187130:	001a82e4 	.word	0x001a82e4

00187134 <wait_until_remote_button_is_released>:
  187134:	e92d5fff 	push	{r0, r1, r2, r3, r4, r5, r6, r7, r8, r9, sl, fp, ip, lr}
  187138:	e10f0000 	mrs	r0, CPSR
  18713c:	e52d0004 	push	{r0}		; (str r0, [sp, #-4]!)
  187140:	e59d0004 	ldr	r0, [sp, #4]
  187144:	eb005315 	bl	19bda0 <___wait_until_remote_button_is_released_from_arm>
  187148:	e49d0004 	pop	{r0}		; (ldr r0, [sp], #4)
  18714c:	e12ff000 	msr	CPSR_fsxc, r0
  187150:	e8bd5fff 	pop	{r0, r1, r2, r3, r4, r5, r6, r7, r8, r9, sl, fp, ip, lr}
  187154:	e12fff1e 	bx	lr

00187158 <hook_raw_save_complete>:
  187158:	e3a02002 	mov	r2, #2
  18715c:	e59f3004 	ldr	r3, [pc, #4]	; 187168 <hook_raw_save_complete+0x10>
  187160:	e5832000 	str	r2, [r3]
  187164:	e12fff1e 	bx	lr
  187168:	001a82e4 	.word	0x001a82e4

0018716c <capt_seq_hook_set_nr>:
  18716c:	e92d5fff 	push	{r0, r1, r2, r3, r4, r5, r6, r7, r8, r9, sl, fp, ip, lr}
  187170:	e59f303c 	ldr	r3, [pc, #60]	; 1871b4 <capt_seq_hook_set_nr+0x48>
  187174:	e5933038 	ldr	r3, [r3, #56]	; 0x38
  187178:	e3530001 	cmp	r3, #1
  18717c:	0a000003 	beq	187190 <capt_seq_hook_set_nr+0x24>
  187180:	e3530002 	cmp	r3, #2
  187184:	0a000001 	beq	187190 <capt_seq_hook_set_nr+0x24>
  187188:	e3530000 	cmp	r3, #0
  18718c:	1a000001 	bne	187198 <capt_seq_hook_set_nr+0x2c>
  187190:	e3a02a07 	mov	r2, #28672	; 0x7000
  187194:	e58235f4 	str	r3, [r2, #1524]	; 0x5f4
  187198:	e3a00000 	mov	r0, #0
  18719c:	eb0029aa 	bl	19184c <_time>
  1871a0:	e59f4010 	ldr	r4, [pc, #16]	; 1871b8 <capt_seq_hook_set_nr+0x4c>
  1871a4:	e58400f0 	str	r0, [r4, #240]	; 0xf0
  1871a8:	eb004d9a 	bl	19a818 <get_tick_count>
  1871ac:	e58400f4 	str	r0, [r4, #244]	; 0xf4
  1871b0:	e8bd9fff 	pop	{r0, r1, r2, r3, r4, r5, r6, r7, r8, r9, sl, fp, ip, pc}
  1871b4:	001a3440 	.word	0x001a3440
  1871b8:	001a4e14 	.word	0x001a4e14

001871bc <capt_seq_task>:
  1871bc:	e92d40f8 	push	{r3, r4, r5, r6, r7, lr}
  1871c0:	e59f58b8 	ldr	r5, [pc, #2232]	; 187a80 <loc_FFAD8328+0x1c>
  1871c4:	e59f78b8 	ldr	r7, [pc, #2232]	; 187a84 <loc_FFAD8328+0x20>
  1871c8:	e3a06000 	mov	r6, #0

001871cc <loc_FF88CA94>:
  1871cc:	e5970004 	ldr	r0, [r7, #4]
  1871d0:	e3a02000 	mov	r2, #0
  1871d4:	e1a0100d 	mov	r1, sp
  1871d8:	ebfffd18 	bl	186640 <sub_FF829E30>
  1871dc:	e3100001 	tst	r0, #1
  1871e0:	0a000005 	beq	1871fc <loc_FF88CAC4>
  1871e4:	e59f289c 	ldr	r2, [pc, #2204]	; 187a88 <loc_FFAD8328+0x24>
  1871e8:	e59f189c 	ldr	r1, [pc, #2204]	; 187a8c <loc_FFAD8328+0x28>
  1871ec:	e3a00000 	mov	r0, #0
  1871f0:	ebfffe9d 	bl	186c6c <_DebugAssert>
  1871f4:	ebfffea3 	bl	186c88 <_ExitTask>
  1871f8:	e8bd80f8 	pop	{r3, r4, r5, r6, r7, pc}

001871fc <loc_FF88CAC4>:
  1871fc:	e59d0000 	ldr	r0, [sp]
  187200:	e5900000 	ldr	r0, [r0]
  187204:	e3500001 	cmp	r0, #1
  187208:	13500023 	cmpne	r0, #35	; 0x23
  18720c:	13500019 	cmpne	r0, #25
  187210:	1bfffdb6 	blne	1868f0 <sub_FF99BB58>
  187214:	e59d0000 	ldr	r0, [sp]
  187218:	e5901000 	ldr	r1, [r0]
  18721c:	e3510025 	cmp	r1, #37	; 0x25
  187220:	308ff101 	addcc	pc, pc, r1, lsl #2
  187224:	ea000089 	b	187450 <loc_FF88CD14>
  187228:	ea000023 	b	1872bc <loc_FF88CB84>
  18722c:	ea000029 	b	1872d8 <loc_FF88CB9C>
  187230:	ea00002b 	b	1872e4 <loc_FF88CBA8>
  187234:	ea00002f 	b	1872f8 <loc_FF88CBBC>
  187238:	ea00002c 	b	1872f0 <loc_FF88CBB4>
  18723c:	ea000030 	b	187304 <loc_FF88CBC8>
  187240:	ea000031 	b	18730c <loc_FF88CBD0>
  187244:	ea000032 	b	187314 <loc_FF88CBD8>
  187248:	ea000034 	b	187320 <loc_FF88CBE4>
  18724c:	ea00003e 	b	18734c <loc_FF88CC10>
  187250:	ea000035 	b	18732c <loc_FF88CBF0>
  187254:	ea000037 	b	187338 <loc_FF88CBFC>
  187258:	ea000038 	b	187340 <loc_FF88CC04>
  18725c:	ea00003c 	b	187354 <loc_FF88CC18>
  187260:	ea00003d 	b	18735c <loc_FF88CC20>
  187264:	ea00003e 	b	187364 <loc_FF88CC28>
  187268:	ea00003f 	b	18736c <loc_FF88CC30>
  18726c:	ea000040 	b	187374 <loc_FF88CC38>
  187270:	ea000042 	b	187380 <loc_FF88CC44>
  187274:	ea000043 	b	187388 <loc_FF88CC4C>
  187278:	ea000044 	b	187390 <loc_FF88CC54>
  18727c:	ea000045 	b	187398 <loc_FF88CC5C>
  187280:	ea000046 	b	1873a0 <loc_FF88CC64>
  187284:	ea000047 	b	1873a8 <loc_FF88CC6C>
  187288:	ea000048 	b	1873b0 <loc_FF88CC74>
  18728c:	ea000049 	b	1873b8 <loc_FF88CC7C>
  187290:	ea00004b 	b	1873c4 <loc_FF88CC88>
  187294:	ea00004c 	b	1873cc <loc_FF88CC90>
  187298:	ea00004d 	b	1873d4 <loc_FF88CC98>
  18729c:	ea00004e 	b	1873dc <loc_FF88CCA0>
  1872a0:	ea00004f 	b	1873e4 <loc_FF88CCA8>
  1872a4:	ea000051 	b	1873f0 <loc_FF88CCB4>
  1872a8:	ea000052 	b	1873f8 <loc_FF88CCBC>
  1872ac:	ea000054 	b	187404 <loc_FF88CCC8>
  1872b0:	ea00005e 	b	187430 <loc_FF88CCF4>
  1872b4:	ea000060 	b	18743c <loc_FF88CD00>
  1872b8:	ea000068 	b	187460 <loc_FF88CD24>

001872bc <loc_FF88CB84>:
  1872bc:	ebfffd15 	bl	186718 <sub_FF88D2AC>
  1872c0:	eb00520f 	bl	19bb04 <shooting_expo_param_override>
  1872c4:	ebfffd0a 	bl	1866f4 <sub_FF88A030>
  1872c8:	e5950028 	ldr	r0, [r5, #40]	; 0x28
  1872cc:	e3500000 	cmp	r0, #0
  1872d0:	1b00006e 	blne	187490 <sub_FF99AA5C_my>
  1872d4:	ea000061 	b	187460 <loc_FF88CD24>

001872d8 <loc_FF88CB9C>:
  1872d8:	e5900010 	ldr	r0, [r0, #16]
  1872dc:	eb0000a5 	bl	187578 <sub_FF99A7E8_my>
  1872e0:	ea00005e 	b	187460 <loc_FF88CD24>

001872e4 <loc_FF88CBA8>:
  1872e4:	e3a00001 	mov	r0, #1
  1872e8:	ebfffd0d 	bl	186724 <sub_FF88D604>
  1872ec:	ea00005b 	b	187460 <loc_FF88CD24>

001872f0 <loc_FF88CBB4>:
  1872f0:	ebfffd04 	bl	186708 <sub_FF88CEF8>
  1872f4:	ea000000 	b	1872fc <loc_FF88CBC0>

001872f8 <loc_FF88CBBC>:
  1872f8:	ebfffd03 	bl	18670c <sub_FF88D288>

001872fc <loc_FF88CBC0>:
  1872fc:	e5856028 	str	r6, [r5, #40]	; 0x28
  187300:	ea000056 	b	187460 <loc_FF88CD24>

00187304 <loc_FF88CBC8>:
  187304:	ebfffd01 	bl	186710 <sub_FF88D290>
  187308:	ea000054 	b	187460 <loc_FF88CD24>

0018730c <loc_FF88CBD0>:
  18730c:	ebfffd02 	bl	18671c <sub_FF88D4C8>
  187310:	ea000003 	b	187324 <loc_FF88CBE8>

00187314 <loc_FF88CBD8>:
  187314:	e5900010 	ldr	r0, [r0, #16]
  187318:	ebfffd6c 	bl	1868d0 <sub_FF99AB78>
  18731c:	ea00004f 	b	187460 <loc_FF88CD24>

00187320 <loc_FF88CBE4>:
  187320:	ebfffcfe 	bl	186720 <sub_FF88D55C>

00187324 <loc_FF88CBE8>:
  187324:	ebfffcf2 	bl	1866f4 <sub_FF88A030>
  187328:	ea00004c 	b	187460 <loc_FF88CD24>

0018732c <loc_FF88CBF0>:
  18732c:	e5950054 	ldr	r0, [r5, #84]	; 0x54
  187330:	ebfffcfe 	bl	186730 <sub_FF88DBB8>
  187334:	ea000049 	b	187460 <loc_FF88CD24>

00187338 <loc_FF88CBFC>:
  187338:	ebfffcfd 	bl	186734 <sub_FF88DFF8>
  18733c:	ea000047 	b	187460 <loc_FF88CD24>

00187340 <loc_FF88CC04>:
  187340:	e590000c 	ldr	r0, [r0, #12]
  187344:	ebfffcfb 	bl	186738 <sub_FF88E060>
  187348:	ea000044 	b	187460 <loc_FF88CD24>

0018734c <loc_FF88CC10>:
  18734c:	ebfffcee 	bl	18670c <sub_FF88D288>
  187350:	ea000042 	b	187460 <loc_FF88CD24>

00187354 <loc_FF88CC18>:
  187354:	ebfffd45 	bl	186870 <sub_FF9992C0>
  187358:	ea000040 	b	187460 <loc_FF88CD24>

0018735c <loc_FF88CC20>:
  18735c:	ebfffd44 	bl	186874 <sub_FF9994F8>
  187360:	ea00003e 	b	187460 <loc_FF88CD24>

00187364 <loc_FF88CC28>:
  187364:	ebfffd43 	bl	186878 <sub_FF9995B4>
  187368:	ea00003c 	b	187460 <loc_FF88CD24>

0018736c <loc_FF88CC30>:
  18736c:	ebfffd42 	bl	18687c <sub_FF99968C>
  187370:	ea00003a 	b	187460 <loc_FF88CD24>

00187374 <loc_FF88CC38>:
  187374:	e3a00000 	mov	r0, #0
  187378:	ebfffd42 	bl	186888 <sub_FF9998F4>
  18737c:	ea000037 	b	187460 <loc_FF88CD24>

00187380 <loc_FF88CC44>:
  187380:	ebfffd41 	bl	18688c <sub_FF999A54>
  187384:	ea000035 	b	187460 <loc_FF88CD24>

00187388 <loc_FF88CC4C>:
  187388:	ebfffcfa 	bl	186778 <sub_FF893AC8>
  18738c:	ea000033 	b	187460 <loc_FF88CD24>

00187390 <loc_FF88CC54>:
  187390:	ebfffcf9 	bl	18677c <sub_FF893AD4>
  187394:	ea000031 	b	187460 <loc_FF88CD24>

00187398 <loc_FF88CC5C>:
  187398:	ebfffd3c 	bl	186890 <sub_FF999AF0>
  18739c:	ea00002f 	b	187460 <loc_FF88CD24>

001873a0 <loc_FF88CC64>:
  1873a0:	ebfffd3b 	bl	186894 <sub_FF999B9C>
  1873a4:	ea00002d 	b	187460 <loc_FF88CD24>

001873a8 <loc_FF88CC6C>:
  1873a8:	ebfffcde 	bl	186728 <sub_FF88D74C>
  1873ac:	ea00002b 	b	187460 <loc_FF88CD24>

001873b0 <loc_FF88CC74>:
  1873b0:	e3a00000 	mov	r0, #0
  1873b4:	ea000000 	b	1873bc <loc_FF88CC80>

001873b8 <loc_FF88CC7C>:
  1873b8:	e590000c 	ldr	r0, [r0, #12]

001873bc <loc_FF88CC80>:
  1873bc:	ebfffcda 	bl	18672c <sub_FF88D7D4>
  1873c0:	ea000026 	b	187460 <loc_FF88CD24>

001873c4 <loc_FF88CC88>:
  1873c4:	ebfffd2d 	bl	186880 <sub_FF99975C>
  1873c8:	ea000024 	b	187460 <loc_FF88CD24>

001873cc <loc_FF88CC90>:
  1873cc:	ebfffd2c 	bl	186884 <sub_FF99979C>
  1873d0:	ea000022 	b	187460 <loc_FF88CD24>

001873d4 <loc_FF88CC98>:
  1873d4:	ebfffcdd 	bl	186750 <sub_FF8905A0>
  1873d8:	ea000020 	b	187460 <loc_FF88CD24>

001873dc <loc_FF88CCA0>:
  1873dc:	ebfffcdc 	bl	186754 <sub_FF890690>
  1873e0:	ea00001e 	b	187460 <loc_FF88CD24>

001873e4 <loc_FF88CCA8>:
  1873e4:	e590000c 	ldr	r0, [r0, #12]
  1873e8:	ebfffd2a 	bl	186898 <sub_FF999CAC>
  1873ec:	ea00001b 	b	187460 <loc_FF88CD24>

001873f0 <loc_FF88CCB4>:
  1873f0:	ebfffd29 	bl	18689c <sub_FF999D34>
  1873f4:	ea000019 	b	187460 <loc_FF88CD24>

001873f8 <loc_FF88CCBC>:
  1873f8:	ebfffcd7 	bl	18675c <sub_FF890820>
  1873fc:	ebfffcd5 	bl	186758 <sub_FF8906E8>
  187400:	ea000016 	b	187460 <loc_FF88CD24>

00187404 <loc_FF88CCC8>:
  187404:	ebfffcda 	bl	186774 <sub_FF892778>
  187408:	e59f0680 	ldr	r0, [pc, #1664]	; 187a90 <loc_FFAD8328+0x2c>
  18740c:	e1d009bc 	ldrh	r0, [r0, #156]	; 0x9c
  187410:	e3500004 	cmp	r0, #4
  187414:	11d500b0 	ldrhne	r0, [r5]
  187418:	12401c82 	subne	r1, r0, #33280	; 0x8200
  18741c:	12511036 	subsne	r1, r1, #54	; 0x36
  187420:	1a00000e 	bne	187460 <loc_FF88CD24>
  187424:	ebfffcca 	bl	186754 <sub_FF890690>
  187428:	ebfffccc 	bl	186760 <sub_FF890BB8>
  18742c:	ea00000b 	b	187460 <loc_FF88CD24>

00187430 <loc_FF88CCF4>:
  187430:	e3a02000 	mov	r2, #0
  187434:	e3a01011 	mov	r1, #17
  187438:	ea000001 	b	187444 <loc_FF88CD08>

0018743c <loc_FF88CD00>:
  18743c:	e3a02000 	mov	r2, #0
  187440:	e3a01010 	mov	r1, #16

00187444 <loc_FF88CD08>:
  187444:	e3a00000 	mov	r0, #0
  187448:	ebfffcab 	bl	1866fc <sub_FF88AB48>
  18744c:	ea000003 	b	187460 <loc_FF88CD24>

00187450 <loc_FF88CD14>:
  187450:	e59f263c 	ldr	r2, [pc, #1596]	; 187a94 <loc_FFAD8328+0x30>
  187454:	e59f1630 	ldr	r1, [pc, #1584]	; 187a8c <loc_FFAD8328+0x28>
  187458:	e3a00000 	mov	r0, #0
  18745c:	ebfffe02 	bl	186c6c <_DebugAssert>

00187460 <loc_FF88CD24>:
  187460:	e59d0000 	ldr	r0, [sp]
  187464:	e5901004 	ldr	r1, [r0, #4]
  187468:	e5970000 	ldr	r0, [r7]
  18746c:	ebfffc71 	bl	186638 <sub_FF829BC4>
  187470:	e59d4000 	ldr	r4, [sp]
  187474:	e5940008 	ldr	r0, [r4, #8]
  187478:	e3500000 	cmp	r0, #0
  18747c:	059f1608 	ldreq	r1, [pc, #1544]	; 187a8c <loc_FFAD8328+0x28>
  187480:	03a02f49 	moveq	r2, #292	; 0x124
  187484:	0bfffdf8 	bleq	186c6c <_DebugAssert>
  187488:	e5846008 	str	r6, [r4, #8]
  18748c:	eaffff4e 	b	1871cc <loc_FF88CA94>

00187490 <sub_FF99AA5C_my>:
  187490:	e92d40f8 	push	{r3, r4, r5, r6, r7, lr}
  187494:	ebfffc9a 	bl	186704 <sub_FF88C004>
  187498:	e1a04000 	mov	r4, r0
  18749c:	e3a0000c 	mov	r0, #12
  1874a0:	ebfffcaf 	bl	186764 <sub_FF892098>
  1874a4:	e59f65ec 	ldr	r6, [pc, #1516]	; 187a98 <loc_FFAD8328+0x34>
  1874a8:	e3100001 	tst	r0, #1
  1874ac:	e3a05001 	mov	r5, #1
  1874b0:	1a00002b 	bne	187564 <loc_FF99AB30>
  1874b4:	ebfffcab 	bl	186768 <sub_FF8920F4>
  1874b8:	e3100001 	tst	r0, #1
  1874bc:	1a000028 	bne	187564 <loc_FF99AB30>
  1874c0:	e3a02002 	mov	r2, #2
  1874c4:	e1a0100d 	mov	r1, sp
  1874c8:	e2850f42 	add	r0, r5, #264	; 0x108
  1874cc:	ebfffe02 	bl	186cdc <_GetPropertyCase>
  1874d0:	e3100001 	tst	r0, #1
  1874d4:	12852f5d 	addne	r2, r5, #372	; 0x174
  1874d8:	159f15bc 	ldrne	r1, [pc, #1468]	; 187a9c <loc_FFAD8328+0x38>
  1874dc:	13a00000 	movne	r0, #0
  1874e0:	1bfffde1 	blne	186c6c <_DebugAssert>
  1874e4:	e1dd00f0 	ldrsh	r0, [sp]
  1874e8:	ebfffc5c 	bl	186660 <sub_FF82CB64>
  1874ec:	ebfffc59 	bl	186658 <sub_FF82C980>
  1874f0:	e3500001 	cmp	r0, #1
  1874f4:	9a00001c 	bls	18756c <loc_FF99AB38>
  1874f8:	e3a00000 	mov	r0, #0
  1874fc:	ebfffc56 	bl	18665c <sub_FF82CAD8>
  187500:	ebfffc83 	bl	186714 <sub_FF88D298>
  187504:	ebfffc8c 	bl	18673c <sub_FF88E388>
  187508:	e1a01004 	mov	r1, r4
  18750c:	ebfffc8b 	bl	186740 <sub_FF88E3E4>
  187510:	e59f0588 	ldr	r0, [pc, #1416]	; 187aa0 <loc_FFAD8328+0x3c>
  187514:	e3a02004 	mov	r2, #4
  187518:	e2841030 	add	r1, r4, #48	; 0x30
  18751c:	ebfffe14 	bl	186d74 <_SetPropertyCase>
  187520:	e3a02004 	mov	r2, #4
  187524:	e2841034 	add	r1, r4, #52	; 0x34
  187528:	e3a0002c 	mov	r0, #44	; 0x2c
  18752c:	ebfffe10 	bl	186d74 <_SetPropertyCase>
  187530:	e3a02004 	mov	r2, #4
  187534:	e2841008 	add	r1, r4, #8
  187538:	e3a0003f 	mov	r0, #63	; 0x3f
  18753c:	ebfffe0c 	bl	186d74 <_SetPropertyCase>
  187540:	ebfffce4 	bl	1868d8 <sub_FF99B344>
  187544:	e3e01a01 	mvn	r1, #4096	; 0x1000
  187548:	ebfffc3b 	bl	18663c <sub_FF829C0C>
  18754c:	e1a00004 	mov	r0, r4
  187550:	ebfffcda 	bl	1868c0 <sub_FF99A48C>
  187554:	e1a00004 	mov	r0, r4
  187558:	eb0001d0 	bl	187ca0 <sub_FFAD7C94_my>
  18755c:	e3100001 	tst	r0, #1
  187560:	0a000000 	beq	187568 <loc_FF99AB34>

00187564 <loc_FF99AB30>:
  187564:	e5865000 	str	r5, [r6]

00187568 <loc_FF99AB34>:
  187568:	e8bd80f8 	pop	{r3, r4, r5, r6, r7, pc}

0018756c <loc_FF99AB38>:
  18756c:	ebfffc61 	bl	1866f8 <sub_FF88A928>
  187570:	ebfffc7d 	bl	18676c <sub_FF892150>
  187574:	e8bd80f8 	pop	{r3, r4, r5, r6, r7, pc}

00187578 <sub_FF99A7E8_my>:
  187578:	e92d41fc 	push	{r2, r3, r4, r5, r6, r7, r8, lr}
  18757c:	e59f74fc 	ldr	r7, [pc, #1276]	; 187a80 <loc_FFAD8328+0x1c>
  187580:	e1a05000 	mov	r5, r0
  187584:	e5970028 	ldr	r0, [r7, #40]	; 0x28
  187588:	e3a04000 	mov	r4, #0
  18758c:	e3500000 	cmp	r0, #0
  187590:	0a00000b 	beq	1875c4 <loc_FF99A834>
  187594:	e59f04fc 	ldr	r0, [pc, #1276]	; 187a98 <loc_FFAD8328+0x34>
  187598:	e1a02005 	mov	r2, r5
  18759c:	e5900000 	ldr	r0, [r0]
  1875a0:	e3a01002 	mov	r1, #2
  1875a4:	e3500000 	cmp	r0, #0
  1875a8:	13a0401d 	movne	r4, #29
  1875ac:	e1a00004 	mov	r0, r4
  1875b0:	ebfffc51 	bl	1866fc <sub_FF88AB48>
  1875b4:	e1a01004 	mov	r1, r4
  1875b8:	e1a00005 	mov	r0, r5
  1875bc:	ebfffcc8 	bl	1868e4 <sub_FF99B8E0>
  1875c0:	ea000086 	b	1877e0 <loc_FF99AA50>

001875c4 <loc_FF99A834>:
  1875c4:	ebfffc5c 	bl	18673c <sub_FF88E388>
  1875c8:	e1a01005 	mov	r1, r5
  1875cc:	ebfffc5b 	bl	186740 <sub_FF88E3E4>
  1875d0:	e59f04c8 	ldr	r0, [pc, #1224]	; 187aa0 <loc_FFAD8328+0x3c>
  1875d4:	e3a02004 	mov	r2, #4
  1875d8:	e2851030 	add	r1, r5, #48	; 0x30
  1875dc:	ebfffde4 	bl	186d74 <_SetPropertyCase>
  1875e0:	e3a02004 	mov	r2, #4
  1875e4:	e2851034 	add	r1, r5, #52	; 0x34
  1875e8:	e3a0002c 	mov	r0, #44	; 0x2c
  1875ec:	ebfffde0 	bl	186d74 <_SetPropertyCase>
  1875f0:	e5970104 	ldr	r0, [r7, #260]	; 0x104
  1875f4:	e59f6494 	ldr	r6, [pc, #1172]	; 187a90 <loc_FFAD8328+0x2c>
  1875f8:	e3500000 	cmp	r0, #0
  1875fc:	1a000005 	bne	187618 <loc_FF99A888>
  187600:	e1d609ba 	ldrh	r0, [r6, #154]	; 0x9a
  187604:	e3500003 	cmp	r0, #3
  187608:	15950008 	ldrne	r0, [r5, #8]
  18760c:	13500001 	cmpne	r0, #1
  187610:	8a00000c 	bhi	187648 <loc_FF99A8B8>
  187614:	ea000002 	b	187624 <loc_FF99A894>

00187618 <loc_FF99A888>:
  187618:	e595000c 	ldr	r0, [r5, #12]
  18761c:	e3500001 	cmp	r0, #1
  187620:	1a000008 	bne	187648 <loc_FF99A8B8>

00187624 <loc_FF99A894>:
  187624:	e3a0000c 	mov	r0, #12
  187628:	ebfffc4d 	bl	186764 <sub_FF892098>
  18762c:	e3100001 	tst	r0, #1
  187630:	1a000002 	bne	187640 <loc_FF99A8B0>
  187634:	ebfffc4b 	bl	186768 <sub_FF8920F4>
  187638:	e3100001 	tst	r0, #1
  18763c:	0a000001 	beq	187648 <loc_FF99A8B8>

00187640 <loc_FF99A8B0>:
  187640:	ebfffc2c 	bl	1866f8 <sub_FF88A928>
  187644:	e3a04001 	mov	r4, #1

00187648 <loc_FF99A8B8>:
  187648:	e3140001 	tst	r4, #1
  18764c:	1a00005c 	bne	1877c4 <loc_FF99AA34>
  187650:	e59700e4 	ldr	r0, [r7, #228]	; 0xe4
  187654:	e3500000 	cmp	r0, #0
  187658:	0a000009 	beq	187684 <loc_FF99A8F4>
  18765c:	e1d609ba 	ldrh	r0, [r6, #154]	; 0x9a
  187660:	e3500003 	cmp	r0, #3
  187664:	15950008 	ldrne	r0, [r5, #8]
  187668:	13500001 	cmpne	r0, #1
  18766c:	8a00001a 	bhi	1876dc <loc_FF99A94C>
  187670:	e5970104 	ldr	r0, [r7, #260]	; 0x104
  187674:	e3500000 	cmp	r0, #0
  187678:	1595000c 	ldrne	r0, [r5, #12]
  18767c:	13500001 	cmpne	r0, #1
  187680:	8a000015 	bhi	1876dc <loc_FF99A94C>

00187684 <loc_FF99A8F4>:
  187684:	e59f0418 	ldr	r0, [pc, #1048]	; 187aa4 <loc_FFAD8328+0x40>
  187688:	e3a02002 	mov	r2, #2
  18768c:	e28d1004 	add	r1, sp, #4
  187690:	ebfffd91 	bl	186cdc <_GetPropertyCase>
  187694:	e3100001 	tst	r0, #1
  187698:	13a020ca 	movne	r2, #202	; 0xca
  18769c:	159f13f8 	ldrne	r1, [pc, #1016]	; 187a9c <loc_FFAD8328+0x38>
  1876a0:	13a00000 	movne	r0, #0
  1876a4:	1bfffd70 	blne	186c6c <_DebugAssert>
  1876a8:	e1dd00f4 	ldrsh	r0, [sp, #4]
  1876ac:	ebfffbeb 	bl	186660 <sub_FF82CB64>
  1876b0:	ebfffbe8 	bl	186658 <sub_FF82C980>
  1876b4:	e3500001 	cmp	r0, #1
  1876b8:	9a000002 	bls	1876c8 <loc_FF99A938>
  1876bc:	e3a00000 	mov	r0, #0
  1876c0:	ebfffbe5 	bl	18665c <sub_FF82CAD8>
  1876c4:	ea000004 	b	1876dc <loc_FF99A94C>

001876c8 <loc_FF99A938>:
  1876c8:	ebfffc0a 	bl	1866f8 <sub_FF88A928>
  1876cc:	ebfffc26 	bl	18676c <sub_FF892150>
  1876d0:	e3a04001 	mov	r4, #1
  1876d4:	e3540000 	cmp	r4, #0
  1876d8:	1a000039 	bne	1877c4 <loc_FF99AA34>

001876dc <loc_FF99A94C>:
  1876dc:	ebfffc7d 	bl	1868d8 <sub_FF99B344>
  1876e0:	e3e01a01 	mvn	r1, #4096	; 0x1000
  1876e4:	ebfffbd4 	bl	18663c <sub_FF829C0C>
  1876e8:	e1a00005 	mov	r0, r5
  1876ec:	ebfffc87 	bl	186910 <sub_FFAD78EC>
  1876f0:	e3100001 	tst	r0, #1
  1876f4:	e1a04000 	mov	r4, r0
  1876f8:	1a000031 	bne	1877c4 <loc_FF99AA34>
  1876fc:	ebfffc04 	bl	186714 <sub_FF88D298>
  187700:	e1a00005 	mov	r0, r5
  187704:	ebfffc6d 	bl	1868c0 <sub_FF99A48C>
  187708:	e59700a0 	ldr	r0, [r7, #160]	; 0xa0
  18770c:	e3500000 	cmp	r0, #0
  187710:	0a000023 	beq	1877a4 <loc_FF99AA14>
  187714:	e1d609ba 	ldrh	r0, [r6, #154]	; 0x9a
  187718:	e3500003 	cmp	r0, #3
  18771c:	15950008 	ldrne	r0, [r5, #8]
  187720:	13500001 	cmpne	r0, #1
  187724:	9a000006 	bls	187744 <loc_FF99A9B4>
  187728:	ebfffc6a 	bl	1868d8 <sub_FF99B344>
  18772c:	e59f3374 	ldr	r3, [pc, #884]	; 187aa8 <loc_FFAD8328+0x44>
  187730:	e59f2374 	ldr	r2, [pc, #884]	; 187aac <loc_FFAD8328+0x48>
  187734:	e58d3000 	str	r3, [sp]
  187738:	e59f335c 	ldr	r3, [pc, #860]	; 187a9c <loc_FFAD8328+0x38>
  18773c:	e3a01a01 	mov	r1, #4096	; 0x1000
  187740:	ebfffc0a 	bl	186770 <sub_FF89237C>

00187744 <loc_FF99A9B4>:
  187744:	e3a02004 	mov	r2, #4
  187748:	e28d1004 	add	r1, sp, #4
  18774c:	e3a00d06 	mov	r0, #384	; 0x180
  187750:	ebfffd61 	bl	186cdc <_GetPropertyCase>
  187754:	e3100001 	tst	r0, #1
  187758:	159f2350 	ldrne	r2, [pc, #848]	; 187ab0 <loc_FFAD8328+0x4c>
  18775c:	159f1338 	ldrne	r1, [pc, #824]	; 187a9c <loc_FFAD8328+0x38>
  187760:	13a00000 	movne	r0, #0
  187764:	1bfffd40 	blne	186c6c <_DebugAssert>
  187768:	e59d0004 	ldr	r0, [sp, #4]
  18776c:	e3500000 	cmp	r0, #0
  187770:	1a000003 	bne	187784 <loc_FF99A9F4>
  187774:	ebfffc57 	bl	1868d8 <sub_FF99B344>
  187778:	e3a01a01 	mov	r1, #4096	; 0x1000
  18777c:	ebfffbad 	bl	186638 <sub_FF829BC4>
  187780:	ea000007 	b	1877a4 <loc_FF99AA14>

00187784 <loc_FF99A9F4>:
  187784:	ebfffc53 	bl	1868d8 <sub_FF99B344>
  187788:	e3a01a01 	mov	r1, #4096	; 0x1000
  18778c:	ebfffbaa 	bl	18663c <sub_FF829C0C>
  187790:	e59f231c 	ldr	r2, [pc, #796]	; 187ab4 <loc_FFAD8328+0x50>
  187794:	e59d0004 	ldr	r0, [sp, #4]
  187798:	e3a03a01 	mov	r3, #4096	; 0x1000
  18779c:	e1a01002 	mov	r1, r2
  1877a0:	ebfffb9e 	bl	186620 <sub_FF826A9C>

001877a4 <loc_FF99AA14>:
  1877a4:	e59700ac 	ldr	r0, [r7, #172]	; 0xac
  1877a8:	e3500000 	cmp	r0, #0
  1877ac:	e1a00005 	mov	r0, r5
  1877b0:	0a000001 	beq	1877bc <loc_FF99AA2C>
  1877b4:	eb00000d 	bl	1877f0 <sub_FFAD80B0_my>
  1877b8:	ea000008 	b	1877e0 <loc_FF99AA50>

001877bc <loc_FF99AA2C>:
  1877bc:	eb000137 	bl	187ca0 <sub_FFAD7C94_my>
  1877c0:	ea000006 	b	1877e0 <loc_FF99AA50>

001877c4 <loc_FF99AA34>:
  1877c4:	e1a02005 	mov	r2, r5
  1877c8:	e3a01002 	mov	r1, #2
  1877cc:	e1a00004 	mov	r0, r4
  1877d0:	ebfffbc9 	bl	1866fc <sub_FF88AB48>
  1877d4:	e1a01004 	mov	r1, r4
  1877d8:	e1a00005 	mov	r0, r5
  1877dc:	ebfffc42 	bl	1868ec <sub_FF99BAF4>

001877e0 <loc_FF99AA50>:
  1877e0:	ebfffe2e 	bl	1870a0 <capt_seq_hook_raw_here>
  1877e4:	e3a00000 	mov	r0, #0
  1877e8:	e5870028 	str	r0, [r7, #40]	; 0x28
  1877ec:	e8bd81fc 	pop	{r2, r3, r4, r5, r6, r7, r8, pc}

001877f0 <sub_FFAD80B0_my>:
  1877f0:	e92d4ff0 	push	{r4, r5, r6, r7, r8, r9, sl, fp, lr}
  1877f4:	e24dd01c 	sub	sp, sp, #28
  1877f8:	e1a06000 	mov	r6, r0
  1877fc:	ebfffc2e 	bl	1868bc <sub_FF99A3F4>
  187800:	ebfffc33 	bl	1868d4 <sub_FF99B1A0>
  187804:	ebfffbcf 	bl	186748 <sub_FF88E860>
  187808:	e59f72a8 	ldr	r7, [pc, #680]	; 187ab8 <loc_FFAD8328+0x54>
  18780c:	e5870004 	str	r0, [r7, #4]
  187810:	e59f02a4 	ldr	r0, [pc, #676]	; 187abc <loc_FFAD8328+0x58>
  187814:	e5900000 	ldr	r0, [r0]
  187818:	e3500001 	cmp	r0, #1
  18781c:	e587000c 	str	r0, [r7, #12]
  187820:	058d0004 	streq	r0, [sp, #4]
  187824:	03a02004 	moveq	r2, #4
  187828:	028d1004 	addeq	r1, sp, #4
  18782c:	03a000e5 	moveq	r0, #229	; 0xe5
  187830:	0bfffd4f 	bleq	186d74 <_SetPropertyCase>
  187834:	e59f0284 	ldr	r0, [pc, #644]	; 187ac0 <loc_FFAD8328+0x5c>
  187838:	e3a02004 	mov	r2, #4
  18783c:	e28d1008 	add	r1, sp, #8
  187840:	ebfffd25 	bl	186cdc <_GetPropertyCase>
  187844:	e3100001 	tst	r0, #1
  187848:	159f2258 	ldrne	r2, [pc, #600]	; 187aa8 <loc_FFAD8328+0x44>
  18784c:	159f1270 	ldrne	r1, [pc, #624]	; 187ac4 <loc_FFAD8328+0x60>
  187850:	13a00000 	movne	r0, #0
  187854:	1bfffd04 	blne	186c6c <_DebugAssert>
  187858:	e59d0008 	ldr	r0, [sp, #8]
  18785c:	e2000cff 	and	r0, r0, #65280	; 0xff00
  187860:	e3500c06 	cmp	r0, #1536	; 0x600
  187864:	159f025c 	ldrne	r0, [pc, #604]	; 187ac8 <loc_FFAD8328+0x64>
  187868:	059f025c 	ldreq	r0, [pc, #604]	; 187acc <loc_FFAD8328+0x68>
  18786c:	11a01006 	movne	r1, r6
  187870:	03a01000 	moveq	r1, #0
  187874:	ebfffbd0 	bl	1867bc <sub_FF8CC134>
  187878:	e3a00000 	mov	r0, #0
  18787c:	e1a00006 	mov	r0, r6
  187880:	ebfffc0f 	bl	1868c4 <sub_FF99A51C>
  187884:	e59f1244 	ldr	r1, [pc, #580]	; 187ad0 <loc_FFAD8328+0x6c>
  187888:	e3a02004 	mov	r2, #4
  18788c:	e3a0008a 	mov	r0, #138	; 0x8a
  187890:	ebfffd11 	bl	186cdc <_GetPropertyCase>
  187894:	e3100001 	tst	r0, #1
  187898:	159f2234 	ldrne	r2, [pc, #564]	; 187ad4 <loc_FFAD8328+0x70>
  18789c:	159f1220 	ldrne	r1, [pc, #544]	; 187ac4 <loc_FFAD8328+0x60>
  1878a0:	13a00000 	movne	r0, #0
  1878a4:	1bfffcf0 	blne	186c6c <_DebugAssert>
  1878a8:	e3a01004 	mov	r1, #4
  1878ac:	e28d000c 	add	r0, sp, #12
  1878b0:	ebfffba3 	bl	186744 <sub_FF88E494>
  1878b4:	ebfffb89 	bl	1866e0 <sub_FF87F79C>
  1878b8:	e59fb218 	ldr	fp, [pc, #536]	; 187ad8 <loc_FFAD8328+0x74>
  1878bc:	e59fa208 	ldr	sl, [pc, #520]	; 187acc <loc_FFAD8328+0x68>
  1878c0:	e3a04000 	mov	r4, #0
  1878c4:	e28d800c 	add	r8, sp, #12
  1878c8:	ea000049 	b	1879f4 <loc_FFAD82B8>

001878cc <loc_FFAD8190>:
  1878cc:	e5874000 	str	r4, [r7]
  1878d0:	e596001c 	ldr	r0, [r6, #28]
  1878d4:	e0882104 	add	r2, r8, r4, lsl #2
  1878d8:	e3a03004 	mov	r3, #4
  1878dc:	e3a0102c 	mov	r1, #44	; 0x2c
  1878e0:	ebfffba6 	bl	186780 <sub_FF89D354>
  1878e4:	ebfffb98 	bl	18674c <sub_FF88F818>
  1878e8:	e3540000 	cmp	r4, #0
  1878ec:	0a000004 	beq	187904 <loc_FFAD81C8>
  1878f0:	ebfffbef 	bl	1868b4 <sub_FF99A334>
  1878f4:	e3540001 	cmp	r4, #1
  1878f8:	01a01006 	moveq	r1, r6
  1878fc:	03a00001 	moveq	r0, #1
  187900:	0bfffc05 	bleq	18691c <sub_FFAD84D0>

00187904 <loc_FFAD81C8>:
  187904:	e3a01000 	mov	r1, #0
  187908:	e1a00006 	mov	r0, r6
  18790c:	ebfffc01 	bl	186918 <sub_FFAD8054>
  187910:	e1a09000 	mov	r9, r0
  187914:	e59d0008 	ldr	r0, [sp, #8]
  187918:	e2000cff 	and	r0, r0, #65280	; 0xff00
  18791c:	e3500c06 	cmp	r0, #1536	; 0x600
  187920:	e8970003 	ldm	r7, {r0, r1}
  187924:	e2411001 	sub	r1, r1, #1
  187928:	1a000003 	bne	18793c <loc_FFAD8200>
  18792c:	e1500001 	cmp	r0, r1
  187930:	059f01a4 	ldreq	r0, [pc, #420]	; 187adc <loc_FFAD8328+0x78>
  187934:	159f0190 	ldrne	r0, [pc, #400]	; 187acc <loc_FFAD8328+0x68>
  187938:	ea000002 	b	187948 <loc_FFAD820C>

0018793c <loc_FFAD8200>:
  18793c:	e1500001 	cmp	r0, r1
  187940:	059f0198 	ldreq	r0, [pc, #408]	; 187ae0 <loc_FFAD8328+0x7c>
  187944:	159f0198 	ldrne	r0, [pc, #408]	; 187ae4 <loc_FFAD8328+0x80>

00187948 <loc_FFAD820C>:
  187948:	e1d611b8 	ldrh	r1, [r6, #24]
  18794c:	e3510000 	cmp	r1, #0
  187950:	13510004 	cmpne	r1, #4
  187954:	1a000009 	bne	187980 <loc_FFAD8244>
  187958:	e58d9000 	str	r9, [sp]
  18795c:	e1a03000 	mov	r3, r0
  187960:	e7981104 	ldr	r1, [r8, r4, lsl #2]
  187964:	e5972008 	ldr	r2, [r7, #8]
  187968:	e1a00006 	mov	r0, r6
  18796c:	ebfffbcc 	bl	1868a4 <sub_FF999E38>
  187970:	e1a05000 	mov	r5, r0
  187974:	ebfffb8a 	bl	1867a4 <sub_FF8C8A5C>
  187978:	ebfffbcb 	bl	1868ac <sub_FF99A2E0>
  18797c:	ea00000c 	b	1879b4 <loc_FFAD8278>

00187980 <loc_FFAD8244>:
  187980:	e3510001 	cmp	r1, #1
  187984:	1a00000a 	bne	1879b4 <loc_FFAD8278>
  187988:	e58d9000 	str	r9, [sp]
  18798c:	e1a03000 	mov	r3, r0
  187990:	e7981104 	ldr	r1, [r8, r4, lsl #2]
  187994:	e5972008 	ldr	r2, [r7, #8]
  187998:	e1a00006 	mov	r0, r6
  18799c:	ebfffbc1 	bl	1868a8 <sub_FF999EC4>
  1879a0:	e1a05000 	mov	r5, r0
  1879a4:	e8970003 	ldm	r7, {r0, r1}
  1879a8:	e2411001 	sub	r1, r1, #1
  1879ac:	e1500001 	cmp	r0, r1
  1879b0:	1bfffbbe 	blne	1868b0 <sub_FF99A30C>

001879b4 <loc_FFAD8278>:
  1879b4:	e159000a 	cmp	r9, sl
  1879b8:	0a00000a 	beq	1879e8 <loc_FFAD82AC>
  1879bc:	ebfffbc5 	bl	1868d8 <sub_FF99B344>
  1879c0:	e59f20e4 	ldr	r2, [pc, #228]	; 187aac <loc_FFAD8328+0x48>
  1879c4:	e59f30f8 	ldr	r3, [pc, #248]	; 187ac4 <loc_FFAD8328+0x60>
  1879c8:	e3a01004 	mov	r1, #4
  1879cc:	e58db000 	str	fp, [sp]
  1879d0:	ebfffb66 	bl	186770 <sub_FF89237C>
  1879d4:	e3500000 	cmp	r0, #0
  1879d8:	11a0200b 	movne	r2, fp
  1879dc:	159f10e0 	ldrne	r1, [pc, #224]	; 187ac4 <loc_FFAD8328+0x60>
  1879e0:	13a00000 	movne	r0, #0
  1879e4:	1bfffca0 	blne	186c6c <_DebugAssert>

001879e8 <loc_FFAD82AC>:
  1879e8:	e3150001 	tst	r5, #1
  1879ec:	1a000003 	bne	187a00 <loc_FFAD82C4>
  1879f0:	e2844001 	add	r4, r4, #1

001879f4 <loc_FFAD82B8>:
  1879f4:	e5970004 	ldr	r0, [r7, #4]
  1879f8:	e1540000 	cmp	r4, r0
  1879fc:	3affffb2 	bcc	1878cc <loc_FFAD8190>

00187a00 <loc_FFAD82C4>:
  187a00:	e3a01000 	mov	r1, #0
  187a04:	e1a00001 	mov	r0, r1
  187a08:	ebfffb3c 	bl	186700 <sub_FF88B2D4>
  187a0c:	e1d601b8 	ldrh	r0, [r6, #24]
  187a10:	e3500001 	cmp	r0, #1
  187a14:	03150001 	tsteq	r5, #1
  187a18:	1a000065 	bne	187bb4 <loc_FFAD840C>
  187a1c:	e59f00a8 	ldr	r0, [pc, #168]	; 187acc <loc_FFAD8328+0x68>
  187a20:	e1a01006 	mov	r1, r6
  187a24:	ebfffb64 	bl	1867bc <sub_FF8CC134>
  187a28:	e59f90b8 	ldr	r9, [pc, #184]	; 187ae8 <loc_FFAD8328+0x84>
  187a2c:	e3a04000 	mov	r4, #0
  187a30:	ea00005c 	b	187ba8 <loc_FFAD8400>

00187a34 <loc_FFAD82F8>:
  187a34:	e3a01001 	mov	r1, #1
  187a38:	e1a00006 	mov	r0, r6
  187a3c:	e5874000 	str	r4, [r7]
  187a40:	ebfffbb4 	bl	186918 <sub_FFAD8054>
  187a44:	e3540000 	cmp	r4, #0
  187a48:	e1a0b000 	mov	fp, r0
  187a4c:	0a000004 	beq	187a64 <loc_FFAD8328>
  187a50:	e597000c 	ldr	r0, [r7, #12]
  187a54:	e3500000 	cmp	r0, #0
  187a58:	0a00002d 	beq	187b14 <loc_FFAD836C>
  187a5c:	e3540001 	cmp	r4, #1
  187a60:	1a000032 	bne	187b30 <loc_FFAD8388>

00187a64 <loc_FFAD8328>:
  187a64:	e5970008 	ldr	r0, [r7, #8]
  187a68:	ebfffb92 	bl	1868b8 <sub_FF99A378>
  187a6c:	e1a00804 	lsl	r0, r4, #16
  187a70:	e1a00820 	lsr	r0, r0, #16
  187a74:	e1a01006 	mov	r1, r6
  187a78:	ebfffba7 	bl	18691c <sub_FFAD84D0>
  187a7c:	eb00019e 	bl	1880fc <sub_FF999DE4_my>
  187a80:	0001cd88 	.word	0x0001cd88
  187a84:	000034f0 	.word	0x000034f0
  187a88:	00000443 	.word	0x00000443
  187a8c:	ff88c3f8 	.word	0xff88c3f8
  187a90:	0001ce88 	.word	0x0001ce88
  187a94:	0000057b 	.word	0x0000057b
  187a98:	00007598 	.word	0x00007598
  187a9c:	ff99ab58 	.word	0xff99ab58
  187aa0:	0000010e 	.word	0x0000010e
  187aa4:	00000109 	.word	0x00000109
  187aa8:	0000011a 	.word	0x0000011a
  187aac:	00003a98 	.word	0x00003a98
  187ab0:	0000011e 	.word	0x0000011e
  187ab4:	ff99a7d4 	.word	0xff99a7d4
  187ab8:	0000ca20 	.word	0x0000ca20
  187abc:	0001cf78 	.word	0x0001cf78
  187ac0:	0000012f 	.word	0x0000012f
  187ac4:	ffad8498 	.word	0xffad8498
  187ac8:	ff99a090 	.word	0xff99a090
  187acc:	ffad8050 	.word	0xffad8050
  187ad0:	0000ca28 	.word	0x0000ca28
  187ad4:	00000129 	.word	0x00000129
  187ad8:	0000015b 	.word	0x0000015b
  187adc:	ff99a23c 	.word	0xff99a23c
  187ae0:	ff99a2c8 	.word	0xff99a2c8
  187ae4:	ff99a220 	.word	0xff99a220
  187ae8:	0000019e 	.word	0x0000019e
  187aec:	e5960038 	ldr	r0, [r6, #56]	; 0x38
  187af0:	e596101c 	ldr	r1, [r6, #28]
  187af4:	e3a02000 	mov	r2, #0
  187af8:	ebfffb2d 	bl	1867b4 <sub_FF8CBF20>
  187afc:	e3100001 	tst	r0, #1
  187b00:	e1a05000 	mov	r5, r0
  187b04:	1a00002a 	bne	187bb4 <loc_FFAD840C>
  187b08:	e597000c 	ldr	r0, [r7, #12]
  187b0c:	e3500000 	cmp	r0, #0
  187b10:	1a000002 	bne	187b20 <loc_FFAD8378>

00187b14 <loc_FFAD836C>:
  187b14:	e5973004 	ldr	r3, [r7, #4]
  187b18:	e2840001 	add	r0, r4, #1
  187b1c:	ea000006 	b	187b3c <loc_FFAD8394>

00187b20 <loc_FFAD8378>:
  187b20:	e3540000 	cmp	r4, #0
  187b24:	03a00001 	moveq	r0, #1
  187b28:	01a03000 	moveq	r3, r0
  187b2c:	0a000002 	beq	187b3c <loc_FFAD8394>

00187b30 <loc_FFAD8388>:
  187b30:	e5971004 	ldr	r1, [r7, #4]
  187b34:	e1a00004 	mov	r0, r4
  187b38:	e2413001 	sub	r3, r1, #1

00187b3c <loc_FFAD8394>:
  187b3c:	e58d3000 	str	r3, [sp]
  187b40:	e1a03000 	mov	r3, r0
  187b44:	e7981104 	ldr	r1, [r8, r4, lsl #2]
  187b48:	e1a0200b 	mov	r2, fp
  187b4c:	e1a00006 	mov	r0, r6
  187b50:	eb000032 	bl	187c20 <sub_FF999FC4_my>
  187b54:	e3100001 	tst	r0, #1
  187b58:	e1a05000 	mov	r5, r0
  187b5c:	1a000014 	bne	187bb4 <loc_FFAD840C>
  187b60:	e8970003 	ldm	r7, {r0, r1}
  187b64:	e2411001 	sub	r1, r1, #1
  187b68:	e1500001 	cmp	r0, r1
  187b6c:	0bfffb4f 	bleq	1868b0 <sub_FF99A30C>
  187b70:	e15b000a 	cmp	fp, sl
  187b74:	0a00000a 	beq	187ba4 <loc_FFAD83FC>
  187b78:	ebfffb56 	bl	1868d8 <sub_FF99B344>
  187b7c:	e59f20d4 	ldr	r2, [pc, #212]	; 187c58 <sub_FF999FC4_my+0x38>
  187b80:	e59f30d4 	ldr	r3, [pc, #212]	; 187c5c <sub_FF999FC4_my+0x3c>
  187b84:	e3a01004 	mov	r1, #4
  187b88:	e58d9000 	str	r9, [sp]
  187b8c:	ebfffaf7 	bl	186770 <sub_FF89237C>
  187b90:	e3500000 	cmp	r0, #0
  187b94:	11a02009 	movne	r2, r9
  187b98:	159f10bc 	ldrne	r1, [pc, #188]	; 187c5c <sub_FF999FC4_my+0x3c>
  187b9c:	13a00000 	movne	r0, #0
  187ba0:	1bfffc31 	blne	186c6c <_DebugAssert>

00187ba4 <loc_FFAD83FC>:
  187ba4:	e2844001 	add	r4, r4, #1

00187ba8 <loc_FFAD8400>:
  187ba8:	e5970004 	ldr	r0, [r7, #4]
  187bac:	e1540000 	cmp	r4, r0
  187bb0:	3affff9f 	bcc	187a34 <loc_FFAD82F8>

00187bb4 <loc_FFAD840C>:
  187bb4:	e1a01006 	mov	r1, r6
  187bb8:	e3a00000 	mov	r0, #0
  187bbc:	ebfffb56 	bl	18691c <sub_FFAD84D0>
  187bc0:	e597000c 	ldr	r0, [r7, #12]
  187bc4:	e3500001 	cmp	r0, #1
  187bc8:	03a00000 	moveq	r0, #0
  187bcc:	058d0004 	streq	r0, [sp, #4]
  187bd0:	03a02004 	moveq	r2, #4
  187bd4:	028d1004 	addeq	r1, sp, #4
  187bd8:	03a000e5 	moveq	r0, #229	; 0xe5
  187bdc:	0bfffc64 	bleq	186d74 <_SetPropertyCase>
  187be0:	ebfffabf 	bl	1866e4 <sub_FF87F7B4>
  187be4:	e1a00006 	mov	r0, r6
  187be8:	ebfffb37 	bl	1868cc <sub_FF99A604>
  187bec:	e3150001 	tst	r5, #1
  187bf0:	01a00006 	moveq	r0, r6
  187bf4:	0bfffb33 	bleq	1868c8 <sub_FF99A5BC>
  187bf8:	e1a02006 	mov	r2, r6
  187bfc:	e3a01002 	mov	r1, #2
  187c00:	e1a00005 	mov	r0, r5
  187c04:	ebfffabc 	bl	1866fc <sub_FF88AB48>
  187c08:	e1a01005 	mov	r1, r5
  187c0c:	e1a00006 	mov	r0, r6
  187c10:	ebfffb34 	bl	1868e8 <sub_FF99B9A8>
  187c14:	e1a00005 	mov	r0, r5
  187c18:	e28dd01c 	add	sp, sp, #28
  187c1c:	e8bd8ff0 	pop	{r4, r5, r6, r7, r8, r9, sl, fp, pc}

00187c20 <sub_FF999FC4_my>:
  187c20:	e92d40ff 	push	{r0, r1, r2, r3, r4, r5, r6, r7, lr}
  187c24:	e24dd01c 	sub	sp, sp, #28
  187c28:	e1a04000 	mov	r4, r0
  187c2c:	e590011c 	ldr	r0, [r0, #284]	; 0x11c
  187c30:	e59d7040 	ldr	r7, [sp, #64]	; 0x40
  187c34:	e1a05002 	mov	r5, r2
  187c38:	e1a06003 	mov	r6, r3
  187c3c:	e58d0018 	str	r0, [sp, #24]
  187c40:	e594001c 	ldr	r0, [r4, #28]
  187c44:	e3a03004 	mov	r3, #4
  187c48:	e28d2020 	add	r2, sp, #32
  187c4c:	e3a0102c 	mov	r1, #44	; 0x2c
  187c50:	ebfffaca 	bl	186780 <sub_FF89D354>
  187c54:	eb000128 	bl	1880fc <sub_FF999DE4_my>
  187c58:	00003a98 	.word	0x00003a98
  187c5c:	ffad8498 	.word	0xffad8498
  187c60:	e594001c 	ldr	r0, [r4, #28]
  187c64:	e28d3014 	add	r3, sp, #20
  187c68:	e88d00c1 	stm	sp, {r0, r6, r7}
  187c6c:	e58d300c 	str	r3, [sp, #12]
  187c70:	e5940038 	ldr	r0, [r4, #56]	; 0x38
  187c74:	e59d1020 	ldr	r1, [sp, #32]
  187c78:	e1a03004 	mov	r3, r4
  187c7c:	e1a02005 	mov	r2, r5
  187c80:	ebfffacc 	bl	1867b8 <sub_FF8CC008>
  187c84:	e3100001 	tst	r0, #1
  187c88:	13a0001d 	movne	r0, #29
  187c8c:	1a000001 	bne	187c98 <loc_FF99A034>
  187c90:	ebfffac3 	bl	1867a4 <sub_FF8C8A5C>
  187c94:	e3a00000 	mov	r0, #0

00187c98 <loc_FF99A034>:
  187c98:	e28dd02c 	add	sp, sp, #44	; 0x2c
  187c9c:	e8bd80f0 	pop	{r4, r5, r6, r7, pc}

00187ca0 <sub_FFAD7C94_my>:
  187ca0:	e92d47fc 	push	{r2, r3, r4, r5, r6, r7, r8, r9, sl, lr}
  187ca4:	e1a04000 	mov	r4, r0
  187ca8:	ebfffb03 	bl	1868bc <sub_FF99A3F4>
  187cac:	ebfffb08 	bl	1868d4 <sub_FF99B1A0>
  187cb0:	e59f717c 	ldr	r7, [pc, #380]	; 187e34 <loc_FFAD7DC4+0x68>
  187cb4:	e5970190 	ldr	r0, [r7, #400]	; 0x190
  187cb8:	e3500002 	cmp	r0, #2
  187cbc:	1a000006 	bne	187cdc <loc_FFAD7CD0>
  187cc0:	e2870c01 	add	r0, r7, #256	; 0x100
  187cc4:	e1d009ba 	ldrh	r0, [r0, #154]	; 0x9a
  187cc8:	e3500003 	cmp	r0, #3
  187ccc:	15940008 	ldrne	r0, [r4, #8]
  187cd0:	13500001 	cmpne	r0, #1
  187cd4:	93a00004 	movls	r0, #4
  187cd8:	9bfffadb 	blls	18684c <sub_FF90CF8C>

00187cdc <loc_FFAD7CD0>:
  187cdc:	e59f0154 	ldr	r0, [pc, #340]	; 187e38 <loc_FFAD7DC4+0x6c>
  187ce0:	e3a02004 	mov	r2, #4
  187ce4:	e28d1004 	add	r1, sp, #4
  187ce8:	ebfffbfb 	bl	186cdc <_GetPropertyCase>
  187cec:	e3100001 	tst	r0, #1
  187cf0:	159f2144 	ldrne	r2, [pc, #324]	; 187e3c <loc_FFAD7DC4+0x70>
  187cf4:	159f1144 	ldrne	r1, [pc, #324]	; 187e40 <loc_FFAD7DC4+0x74>
  187cf8:	13a00000 	movne	r0, #0
  187cfc:	1bfffbda 	blne	186c6c <_DebugAssert>
  187d00:	e59d0004 	ldr	r0, [sp, #4]
  187d04:	e2000cff 	and	r0, r0, #65280	; 0xff00
  187d08:	e3500c06 	cmp	r0, #1536	; 0x600
  187d0c:	159f0130 	ldrne	r0, [pc, #304]	; 187e44 <loc_FFAD7DC4+0x78>
  187d10:	059f0130 	ldreq	r0, [pc, #304]	; 187e48 <loc_FFAD7DC4+0x7c>
  187d14:	11a01004 	movne	r1, r4
  187d18:	03a01000 	moveq	r1, #0
  187d1c:	ebfffaa6 	bl	1867bc <sub_FF8CC134>
  187d20:	e5970184 	ldr	r0, [r7, #388]	; 0x184
  187d24:	e3500000 	cmp	r0, #0
  187d28:	1bfffadf 	blne	1868ac <sub_FF99A2E0>
  187d2c:	e3a00000 	mov	r0, #0
  187d30:	e1a00004 	mov	r0, r4
  187d34:	ebfffae2 	bl	1868c4 <sub_FF99A51C>
  187d38:	e59f110c 	ldr	r1, [pc, #268]	; 187e4c <loc_FFAD7DC4+0x80>
  187d3c:	e3a02004 	mov	r2, #4
  187d40:	e3a0008a 	mov	r0, #138	; 0x8a
  187d44:	ebfffbe4 	bl	186cdc <_GetPropertyCase>
  187d48:	e3100001 	tst	r0, #1
  187d4c:	159f20fc 	ldrne	r2, [pc, #252]	; 187e50 <loc_FFAD7DC4+0x84>
  187d50:	159f10e8 	ldrne	r1, [pc, #232]	; 187e40 <loc_FFAD7DC4+0x74>
  187d54:	13a00000 	movne	r0, #0
  187d58:	1bfffbc3 	blne	186c6c <_DebugAssert>
  187d5c:	ebfffa7a 	bl	18674c <sub_FF88F818>
  187d60:	ebfffa5e 	bl	1866e0 <sub_FF87F79C>
  187d64:	e3a01000 	mov	r1, #0
  187d68:	e1a00004 	mov	r0, r4
  187d6c:	ebfffae8 	bl	186914 <sub_FFAD7C14>
  187d70:	e1a06000 	mov	r6, r0
  187d74:	e59d0004 	ldr	r0, [sp, #4]
  187d78:	e59f80cc 	ldr	r8, [pc, #204]	; 187e4c <loc_FFAD7DC4+0x80>
  187d7c:	e2000cff 	and	r0, r0, #65280	; 0xff00
  187d80:	e3500c06 	cmp	r0, #1536	; 0x600
  187d84:	e1d401b8 	ldrh	r0, [r4, #24]
  187d88:	159f20c4 	ldrne	r2, [pc, #196]	; 187e54 <loc_FFAD7DC4+0x88>
  187d8c:	059f20c4 	ldreq	r2, [pc, #196]	; 187e58 <loc_FFAD7DC4+0x8c>
  187d90:	e3500000 	cmp	r0, #0
  187d94:	0a000003 	beq	187da8 <loc_FFAD7DA0>
  187d98:	e3500001 	cmp	r0, #1
  187d9c:	0a00000a 	beq	187dcc <loc_FFAD7DC4>
  187da0:	e3500004 	cmp	r0, #4
  187da4:	1a00002f 	bne	187e68 <loc_FFAD7E38>

00187da8 <loc_FFAD7DA0>:
  187da8:	e58d6000 	str	r6, [sp]
  187dac:	e1a03002 	mov	r3, r2
  187db0:	e5941034 	ldr	r1, [r4, #52]	; 0x34
  187db4:	e5982000 	ldr	r2, [r8]
  187db8:	e1a00004 	mov	r0, r4
  187dbc:	eb000062 	bl	187f4c <sub_FF999E38_my>
  187dc0:	e1a05000 	mov	r5, r0
  187dc4:	ebfffa76 	bl	1867a4 <sub_FF8C8A5C>
  187dc8:	ea00002b 	b	187e7c <loc_FFAD7E4C>

00187dcc <loc_FFAD7DC4>:
  187dcc:	e58d6000 	str	r6, [sp]
  187dd0:	e1a03002 	mov	r3, r2
  187dd4:	e5941034 	ldr	r1, [r4, #52]	; 0x34
  187dd8:	e5982000 	ldr	r2, [r8]
  187ddc:	e1a00004 	mov	r0, r4
  187de0:	eb000082 	bl	187ff0 <sub_FF999EC4_my>
  187de4:	e1a05000 	mov	r5, r0
  187de8:	e3a01000 	mov	r1, #0
  187dec:	e3a00045 	mov	r0, #69	; 0x45
  187df0:	ebfffa2c 	bl	1866a8 <sub_FF833F7C>
  187df4:	e3150001 	tst	r5, #1
  187df8:	1a00001f 	bne	187e7c <loc_FFAD7E4C>
  187dfc:	e59f0044 	ldr	r0, [pc, #68]	; 187e48 <loc_FFAD7DC4+0x7c>
  187e00:	e3a01000 	mov	r1, #0
  187e04:	ebfffa6c 	bl	1867bc <sub_FF8CC134>
  187e08:	e3a01001 	mov	r1, #1
  187e0c:	e1a00004 	mov	r0, r4
  187e10:	ebfffabf 	bl	186914 <sub_FFAD7C14>
  187e14:	e1a06000 	mov	r6, r0
  187e18:	e5980000 	ldr	r0, [r8]
  187e1c:	ebfffaa5 	bl	1868b8 <sub_FF99A378>
  187e20:	e5941034 	ldr	r1, [r4, #52]	; 0x34
  187e24:	e5982000 	ldr	r2, [r8]
  187e28:	e1a03006 	mov	r3, r6
  187e2c:	e1a00004 	mov	r0, r4
  187e30:	eb000095 	bl	18808c <sub_FF999F5C_my>
  187e34:	0001cd88 	.word	0x0001cd88
  187e38:	0000012f 	.word	0x0000012f
  187e3c:	00000191 	.word	0x00000191
  187e40:	ffad7f40 	.word	0xffad7f40
  187e44:	ff99a090 	.word	0xff99a090
  187e48:	ffad7c10 	.word	0xffad7c10
  187e4c:	0000ca1c 	.word	0x0000ca1c
  187e50:	000001a5 	.word	0x000001a5
  187e54:	ff99a2c8 	.word	0xff99a2c8
  187e58:	ff99a23c 	.word	0xff99a23c
  187e5c:	e1a05000 	mov	r5, r0
  187e60:	ebfffa8e 	bl	1868a0 <sub_FF999DC0>
  187e64:	ea000004 	b	187e7c <loc_FFAD7E4C>

00187e68 <loc_FFAD7E38>:
  187e68:	e3a02f76 	mov	r2, #472	; 0x1d8
  187e6c:	e59f1124 	ldr	r1, [pc, #292]	; 187f98 <sub_FF999E38_my+0x4c>
  187e70:	e3a00000 	mov	r0, #0
  187e74:	ebfffb7c 	bl	186c6c <_DebugAssert>
  187e78:	e3a0501d 	mov	r5, #29

00187e7c <loc_FFAD7E4C>:
  187e7c:	ebfffa18 	bl	1866e4 <sub_FF87F7B4>
  187e80:	e59f8114 	ldr	r8, [pc, #276]	; 187f9c <sub_FF999E38_my+0x50>
  187e84:	e3150001 	tst	r5, #1
  187e88:	1a00001b 	bne	187efc <loc_FFAD7ECC>
  187e8c:	e5970100 	ldr	r0, [r7, #256]	; 0x100
  187e90:	e3500000 	cmp	r0, #0
  187e94:	1a000006 	bne	187eb4 <loc_FFAD7E84>
  187e98:	e1a00004 	mov	r0, r4
  187e9c:	ebfffa94 	bl	1868f4 <sub_FF99C0E4>
  187ea0:	e3100001 	tst	r0, #1
  187ea4:	159f20f4 	ldrne	r2, [pc, #244]	; 187fa0 <sub_FF999E38_my+0x54>
  187ea8:	159f10e8 	ldrne	r1, [pc, #232]	; 187f98 <sub_FF999E38_my+0x4c>
  187eac:	13a00000 	movne	r0, #0
  187eb0:	1bfffb6d 	blne	186c6c <_DebugAssert>

00187eb4 <loc_FFAD7E84>:
  187eb4:	e1a00004 	mov	r0, r4
  187eb8:	ebfffa83 	bl	1868cc <sub_FF99A604>
  187ebc:	e1a00004 	mov	r0, r4
  187ec0:	ebfffa80 	bl	1868c8 <sub_FF99A5BC>
  187ec4:	e1560008 	cmp	r6, r8
  187ec8:	0a00000b 	beq	187efc <loc_FFAD7ECC>
  187ecc:	ebfffa81 	bl	1868d8 <sub_FF99B344>
  187ed0:	e59f90cc 	ldr	r9, [pc, #204]	; 187fa4 <sub_FF999E38_my+0x58>
  187ed4:	e59f20cc 	ldr	r2, [pc, #204]	; 187fa8 <sub_FF999E38_my+0x5c>
  187ed8:	e59f30b8 	ldr	r3, [pc, #184]	; 187f98 <sub_FF999E38_my+0x4c>
  187edc:	e3a01004 	mov	r1, #4
  187ee0:	e58d9000 	str	r9, [sp]
  187ee4:	ebfffa21 	bl	186770 <sub_FF89237C>
  187ee8:	e3500000 	cmp	r0, #0
  187eec:	11a02009 	movne	r2, r9
  187ef0:	159f10a0 	ldrne	r1, [pc, #160]	; 187f98 <sub_FF999E38_my+0x4c>
  187ef4:	13a00000 	movne	r0, #0
  187ef8:	1bfffb5b 	blne	186c6c <_DebugAssert>

00187efc <loc_FFAD7ECC>:
  187efc:	e1a02004 	mov	r2, r4
  187f00:	e3a01002 	mov	r1, #2
  187f04:	e1a00005 	mov	r0, r5
  187f08:	ebfff9fb 	bl	1866fc <sub_FF88AB48>
  187f0c:	e5970028 	ldr	r0, [r7, #40]	; 0x28
  187f10:	e3500000 	cmp	r0, #0
  187f14:	0a000005 	beq	187f30 <loc_FFAD7F00>
  187f18:	e0561008 	subs	r1, r6, r8
  187f1c:	13a01001 	movne	r1, #1
  187f20:	e1a02005 	mov	r2, r5
  187f24:	e1a00004 	mov	r0, r4
  187f28:	ebfffa6c 	bl	1868e0 <sub_FF99B878>
  187f2c:	ea000004 	b	187f44 <loc_FFAD7F14>

00187f30 <loc_FFAD7F00>:
  187f30:	e0561008 	subs	r1, r6, r8
  187f34:	13a01001 	movne	r1, #1
  187f38:	e1a02005 	mov	r2, r5
  187f3c:	e1a00004 	mov	r0, r4
  187f40:	ebfffa65 	bl	1868dc <sub_FF99B80C>

00187f44 <loc_FFAD7F14>:
  187f44:	e1a00005 	mov	r0, r5
  187f48:	e8bd87fc 	pop	{r2, r3, r4, r5, r6, r7, r8, r9, sl, pc}

00187f4c <sub_FF999E38_my>:
  187f4c:	e92d41f0 	push	{r4, r5, r6, r7, r8, lr}
  187f50:	e1a08001 	mov	r8, r1
  187f54:	e59f1050 	ldr	r1, [pc, #80]	; 187fac <sub_FF999E38_my+0x60>
  187f58:	e1a04000 	mov	r4, r0
  187f5c:	e591009c 	ldr	r0, [r1, #156]	; 0x9c
  187f60:	e1a05002 	mov	r5, r2
  187f64:	e3500000 	cmp	r0, #0
  187f68:	15912190 	ldrne	r2, [r1, #400]	; 0x190
  187f6c:	e24dd028 	sub	sp, sp, #40	; 0x28
  187f70:	13520002 	cmpne	r2, #2
  187f74:	03a02000 	moveq	r2, #0
  187f78:	13a02001 	movne	r2, #1
  187f7c:	e58d2020 	str	r2, [sp, #32]
  187f80:	e594211c 	ldr	r2, [r4, #284]	; 0x11c
  187f84:	e59d7040 	ldr	r7, [sp, #64]	; 0x40
  187f88:	e58d2024 	str	r2, [sp, #36]	; 0x24
  187f8c:	e1a06003 	mov	r6, r3
  187f90:	e58101d8 	str	r0, [r1, #472]	; 0x1d8
  187f94:	eb000058 	bl	1880fc <sub_FF999DE4_my>
  187f98:	ffad7f40 	.word	0xffad7f40
  187f9c:	ffad7c10 	.word	0xffad7c10
  187fa0:	000001fd 	.word	0x000001fd
  187fa4:	0000020a 	.word	0x0000020a
  187fa8:	00003a98 	.word	0x00003a98
  187fac:	0001cd88 	.word	0x0001cd88
  187fb0:	e594201c 	ldr	r2, [r4, #28]
  187fb4:	e28d3020 	add	r3, sp, #32
  187fb8:	e3a01000 	mov	r1, #0
  187fbc:	e59f0054 	ldr	r0, [pc, #84]	; 188018 <sub_FF999EC4_my+0x28>
  187fc0:	e28dc00c 	add	ip, sp, #12
  187fc4:	e88c000f 	stm	ip, {r0, r1, r2, r3}
  187fc8:	e88d0090 	stm	sp, {r4, r7}
  187fcc:	e1a03006 	mov	r3, r6
  187fd0:	e1a02008 	mov	r2, r8
  187fd4:	e1a00005 	mov	r0, r5
  187fd8:	e58d4008 	str	r4, [sp, #8]
  187fdc:	ebfff9f1 	bl	1867a8 <sub_FF8CB610>
  187fe0:	e2100001 	ands	r0, r0, #1
  187fe4:	13a0001d 	movne	r0, #29
  187fe8:	e28dd028 	add	sp, sp, #40	; 0x28
  187fec:	e8bd81f0 	pop	{r4, r5, r6, r7, r8, pc}

00187ff0 <sub_FF999EC4_my>:
  187ff0:	e92d41f0 	push	{r4, r5, r6, r7, r8, lr}
  187ff4:	e1a04000 	mov	r4, r0
  187ff8:	e590011c 	ldr	r0, [r0, #284]	; 0x11c
  187ffc:	e24dd020 	sub	sp, sp, #32
  188000:	e59d7038 	ldr	r7, [sp, #56]	; 0x38
  188004:	e1a08001 	mov	r8, r1
  188008:	e1a05002 	mov	r5, r2
  18800c:	e1a06003 	mov	r6, r3
  188010:	e58d001c 	str	r0, [sp, #28]
  188014:	eb000038 	bl	1880fc <sub_FF999DE4_my>
  188018:	ff999dc0 	.word	0xff999dc0
  18801c:	e594201c 	ldr	r2, [r4, #28]
  188020:	e28d3018 	add	r3, sp, #24
  188024:	e58d200c 	str	r2, [sp, #12]
  188028:	e58d3010 	str	r3, [sp, #16]
  18802c:	e1a03006 	mov	r3, r6
  188030:	e1a02008 	mov	r2, r8
  188034:	e3a01000 	mov	r1, #0
  188038:	e1a00005 	mov	r0, r5
  18803c:	e58d4008 	str	r4, [sp, #8]
  188040:	e58d7004 	str	r7, [sp, #4]
  188044:	e58d4000 	str	r4, [sp]
  188048:	ebfff9d7 	bl	1867ac <sub_FF8CB6EC>
  18804c:	e3100001 	tst	r0, #1
  188050:	13a0001d 	movne	r0, #29
  188054:	1a00000a 	bne	188084 <loc_FF999F54>
  188058:	e59f0050 	ldr	r0, [pc, #80]	; 1880b0 <sub_FF999F5C_my+0x24>
  18805c:	e5900184 	ldr	r0, [r0, #388]	; 0x184
  188060:	e3500000 	cmp	r0, #0
  188064:	1a000005 	bne	188080 <loc_FF999F50>
  188068:	e59f0044 	ldr	r0, [pc, #68]	; 1880b4 <sub_FF999F5C_my+0x28>
  18806c:	e1d009ba 	ldrh	r0, [r0, #154]	; 0x9a
  188070:	e3500003 	cmp	r0, #3
  188074:	15940008 	ldrne	r0, [r4, #8]
  188078:	13500001 	cmpne	r0, #1
  18807c:	8bfffa1d 	blhi	1868f8 <sub_FF99C1DC>

00188080 <loc_FF999F50>:
  188080:	e3a00000 	mov	r0, #0

00188084 <loc_FF999F54>:
  188084:	e28dd020 	add	sp, sp, #32
  188088:	e8bd81f0 	pop	{r4, r5, r6, r7, r8, pc}

0018808c <sub_FF999F5C_my>:
  18808c:	e92d40f0 	push	{r4, r5, r6, r7, lr}
  188090:	e1a04000 	mov	r4, r0
  188094:	e590011c 	ldr	r0, [r0, #284]	; 0x11c
  188098:	e24dd01c 	sub	sp, sp, #28
  18809c:	e1a06001 	mov	r6, r1
  1880a0:	e1a05002 	mov	r5, r2
  1880a4:	e1a07003 	mov	r7, r3
  1880a8:	e58d0018 	str	r0, [sp, #24]
  1880ac:	eb000012 	bl	1880fc <sub_FF999DE4_my>
  1880b0:	0001cd88 	.word	0x0001cd88
  1880b4:	0001ce88 	.word	0x0001ce88
  1880b8:	e594201c 	ldr	r2, [r4, #28]
  1880bc:	e28d3014 	add	r3, sp, #20
  1880c0:	e1cd20f8 	strd	r2, [sp, #8]
  1880c4:	e58d4004 	str	r4, [sp, #4]
  1880c8:	e58d7000 	str	r7, [sp]
  1880cc:	e5943038 	ldr	r3, [r4, #56]	; 0x38
  1880d0:	e1a02006 	mov	r2, r6
  1880d4:	e3a01000 	mov	r1, #0
  1880d8:	e1a00005 	mov	r0, r5
  1880dc:	ebfff9b3 	bl	1867b0 <sub_FF8CB7C0>
  1880e0:	e3100001 	tst	r0, #1
  1880e4:	13a0001d 	movne	r0, #29
  1880e8:	1a000001 	bne	1880f4 <loc_FF999FBC>
  1880ec:	ebfff9ac 	bl	1867a4 <sub_FF8C8A5C>
  1880f0:	e3a00000 	mov	r0, #0

001880f4 <loc_FF999FBC>:
  1880f4:	e28dd01c 	add	sp, sp, #28
  1880f8:	e8bd80f0 	pop	{r4, r5, r6, r7, pc}

001880fc <sub_FF999DE4_my>:
  1880fc:	e92d4038 	push	{r3, r4, r5, lr}
  188100:	e59f482c 	ldr	r4, [pc, #2092]	; 188934 <sub_FF8C3364_my+0x74>
  188104:	e59f082c 	ldr	r0, [pc, #2092]	; 188938 <sub_FF8C3364_my+0x78>
  188108:	e5943000 	ldr	r3, [r4]
  18810c:	e1d420fc 	ldrsh	r2, [r4, #12]
  188110:	e1d410fe 	ldrsh	r1, [r4, #14]
  188114:	e5900088 	ldr	r0, [r0, #136]	; 0x88
  188118:	ebfff9cd 	bl	186854 <sub_FF957490>
  18811c:	e3a02002 	mov	r2, #2
  188120:	e1a0100d 	mov	r1, sp
  188124:	e3a000fa 	mov	r0, #250	; 0xfa
  188128:	ebfffaeb 	bl	186cdc <_GetPropertyCase>
  18812c:	e3100001 	tst	r0, #1
  188130:	13a02fd2 	movne	r2, #840	; 0x348
  188134:	159f1800 	ldrne	r1, [pc, #2048]	; 18893c <sub_FF8C3364_my+0x7c>
  188138:	13a00000 	movne	r0, #0
  18813c:	1bfffaca 	blne	186c6c <_DebugAssert>
  188140:	e1d400fc 	ldrsh	r0, [r4, #12]
  188144:	e1dd10f0 	ldrsh	r1, [sp]
  188148:	ebfffbf9 	bl	187134 <wait_until_remote_button_is_released>
  18814c:	ebfffc06 	bl	18716c <capt_seq_hook_set_nr>
  188150:	e59ff7e8 	ldr	pc, [pc, #2024]	; 188940 <sub_FF8C3364_my+0x80>

00188154 <exp_drv_task>:
  188154:	e92d43f0 	push	{r4, r5, r6, r7, r8, r9, lr}
  188158:	e24dd02c 	sub	sp, sp, #44	; 0x2c
  18815c:	e59f67e0 	ldr	r6, [pc, #2016]	; 188944 <sub_FF8C3364_my+0x84>
  188160:	e59f77e0 	ldr	r7, [pc, #2016]	; 188948 <sub_FF8C3364_my+0x88>
  188164:	e59f47e0 	ldr	r4, [pc, #2016]	; 18894c <sub_FF8C3364_my+0x8c>
  188168:	e3a00000 	mov	r0, #0
  18816c:	e28d501c 	add	r5, sp, #28
  188170:	e58d000c 	str	r0, [sp, #12]

00188174 <loc_FF8DB0D0>:
  188174:	e5960020 	ldr	r0, [r6, #32]
  188178:	e3a02000 	mov	r2, #0
  18817c:	e28d1028 	add	r1, sp, #40	; 0x28
  188180:	ebfff92e 	bl	186640 <sub_FF829E30>
  188184:	e59d000c 	ldr	r0, [sp, #12]
  188188:	e3500001 	cmp	r0, #1
  18818c:	1a00000c 	bne	1881c4 <loc_FF8DB120>
  188190:	e59d0028 	ldr	r0, [sp, #40]	; 0x28
  188194:	e5900000 	ldr	r0, [r0]
  188198:	e3500014 	cmp	r0, #20
  18819c:	13500015 	cmpne	r0, #21
  1881a0:	13500016 	cmpne	r0, #22
  1881a4:	13500017 	cmpne	r0, #23
  1881a8:	13500018 	cmpne	r0, #24
  1881ac:	0a00005d 	beq	188328 <loc_FF8DB284>
  1881b0:	e350002e 	cmp	r0, #46	; 0x2e
  1881b4:	0a00003c 	beq	1882ac <loc_FF8DB208>
  1881b8:	e28d100c 	add	r1, sp, #12
  1881bc:	e3a00000 	mov	r0, #0
  1881c0:	ebfff998 	bl	186828 <sub_FF8DB050>

001881c4 <loc_FF8DB120>:
  1881c4:	e59d0028 	ldr	r0, [sp, #40]	; 0x28
  1881c8:	e5901000 	ldr	r1, [r0]
  1881cc:	e3510034 	cmp	r1, #52	; 0x34
  1881d0:	1a000006 	bne	1881f0 <loc_FF8DB14C>
  1881d4:	ebfff994 	bl	18682c <sub_FF8DC8F0>
  1881d8:	e596001c 	ldr	r0, [r6, #28]
  1881dc:	e3a01001 	mov	r1, #1
  1881e0:	ebfff914 	bl	186638 <sub_FF829BC4>
  1881e4:	ebfffaa7 	bl	186c88 <_ExitTask>
  1881e8:	e28dd02c 	add	sp, sp, #44	; 0x2c
  1881ec:	e8bd83f0 	pop	{r4, r5, r6, r7, r8, r9, pc}

001881f0 <loc_FF8DB14C>:
  1881f0:	e3510033 	cmp	r1, #51	; 0x33
  1881f4:	1a000004 	bne	18820c <loc_FF8DB168>
  1881f8:	e5b020ac 	ldr	r2, [r0, #172]!	; 0xac
  1881fc:	e5901004 	ldr	r1, [r0, #4]
  188200:	e1a00001 	mov	r0, r1
  188204:	e12fff32 	blx	r2
  188208:	ea000176 	b	1887e8 <loc_FF8DB744>

0018820c <loc_FF8DB168>:
  18820c:	e351002c 	cmp	r1, #44	; 0x2c
  188210:	1a000011 	bne	18825c <loc_FF8DB1B8>
  188214:	e596001c 	ldr	r0, [r6, #28]
  188218:	e3a01080 	mov	r1, #128	; 0x80
  18821c:	ebfff906 	bl	18663c <sub_FF829C0C>
  188220:	e59f0728 	ldr	r0, [pc, #1832]	; 188950 <sub_FF8C3364_my+0x90>
  188224:	e3a01080 	mov	r1, #128	; 0x80
  188228:	ebfff92e 	bl	1866e8 <sub_FF887A8C>
  18822c:	e596001c 	ldr	r0, [r6, #28]
  188230:	e1a02007 	mov	r2, r7
  188234:	e3a01080 	mov	r1, #128	; 0x80
  188238:	ebfff8fd 	bl	186634 <sub_FF829AF8>
  18823c:	e3100001 	tst	r0, #1
  188240:	159f270c 	ldrne	r2, [pc, #1804]	; 188954 <sub_FF8C3364_my+0x94>
  188244:	1a000033 	bne	188318 <loc_FF8DB274>

00188248 <loc_FF8DB1A4>:
  188248:	e59d1028 	ldr	r1, [sp, #40]	; 0x28
  18824c:	e59100b0 	ldr	r0, [r1, #176]	; 0xb0
  188250:	e59110ac 	ldr	r1, [r1, #172]	; 0xac
  188254:	e12fff31 	blx	r1
  188258:	ea000162 	b	1887e8 <loc_FF8DB744>

0018825c <loc_FF8DB1B8>:
  18825c:	e351002d 	cmp	r1, #45	; 0x2d
  188260:	1a00000f 	bne	1882a4 <loc_FF8DB200>
  188264:	e28d100c 	add	r1, sp, #12
  188268:	ebfff96e 	bl	186828 <sub_FF8DB050>
  18826c:	e596001c 	ldr	r0, [r6, #28]
  188270:	e3a01c01 	mov	r1, #256	; 0x100
  188274:	ebfff8f0 	bl	18663c <sub_FF829C0C>
  188278:	e59f06d8 	ldr	r0, [pc, #1752]	; 188958 <sub_FF8C3364_my+0x98>
  18827c:	e3a01c01 	mov	r1, #256	; 0x100
  188280:	ebfff91a 	bl	1866f0 <sub_FF887CA4>
  188284:	e596001c 	ldr	r0, [r6, #28]
  188288:	e1a02007 	mov	r2, r7
  18828c:	e3a01c01 	mov	r1, #256	; 0x100
  188290:	ebfff8e7 	bl	186634 <sub_FF829AF8>
  188294:	e3100001 	tst	r0, #1
  188298:	0affffea 	beq	188248 <loc_FF8DB1A4>
  18829c:	e59f26b8 	ldr	r2, [pc, #1720]	; 18895c <sub_FF8C3364_my+0x9c>
  1882a0:	ea00001c 	b	188318 <loc_FF8DB274>

001882a4 <loc_FF8DB200>:
  1882a4:	e351002e 	cmp	r1, #46	; 0x2e
  1882a8:	1a000003 	bne	1882bc <loc_FF8DB218>

001882ac <loc_FF8DB208>:
  1882ac:	e59d0028 	ldr	r0, [sp, #40]	; 0x28
  1882b0:	e28d100c 	add	r1, sp, #12
  1882b4:	ebfff95b 	bl	186828 <sub_FF8DB050>
  1882b8:	eaffffe2 	b	188248 <loc_FF8DB1A4>

001882bc <loc_FF8DB218>:
  1882bc:	e3510031 	cmp	r1, #49	; 0x31
  1882c0:	1a000003 	bne	1882d4 <loc_FF8DB230>
  1882c4:	ebfff933 	bl	186798 <sub_FF8C3658>
  1882c8:	ebfff934 	bl	1867a0 <sub_FF8C44D0>
  1882cc:	ebfff932 	bl	18679c <sub_FF8C3FB0>
  1882d0:	eaffffdc 	b	188248 <loc_FF8DB1A4>

001882d4 <loc_FF8DB230>:
  1882d4:	e3510032 	cmp	r1, #50	; 0x32
  1882d8:	1a000012 	bne	188328 <loc_FF8DB284>
  1882dc:	e596001c 	ldr	r0, [r6, #28]
  1882e0:	e3a01004 	mov	r1, #4
  1882e4:	ebfff8d4 	bl	18663c <sub_FF829C0C>
  1882e8:	e59f1670 	ldr	r1, [pc, #1648]	; 188960 <sub_FF8C3364_my+0xa0>
  1882ec:	e59f0670 	ldr	r0, [pc, #1648]	; 188964 <sub_FF8C3364_my+0xa4>
  1882f0:	e3a02004 	mov	r2, #4
  1882f4:	ebfff94d 	bl	186830 <sub_FF8DC954>
  1882f8:	ebfff925 	bl	186794 <sub_FF8C32EC>
  1882fc:	e596001c 	ldr	r0, [r6, #28]
  188300:	e1a02007 	mov	r2, r7
  188304:	e3a01004 	mov	r1, #4
  188308:	ebfff8c8 	bl	186630 <sub_FF829A0C>
  18830c:	e3100001 	tst	r0, #1
  188310:	0affffcc 	beq	188248 <loc_FF8DB1A4>
  188314:	e59f264c 	ldr	r2, [pc, #1612]	; 188968 <sub_FF8C3364_my+0xa8>

00188318 <loc_FF8DB274>:
  188318:	e59f164c 	ldr	r1, [pc, #1612]	; 18896c <sub_FF8C3364_my+0xac>
  18831c:	e3a00000 	mov	r0, #0
  188320:	ebfffa51 	bl	186c6c <_DebugAssert>
  188324:	eaffffc7 	b	188248 <loc_FF8DB1A4>

00188328 <loc_FF8DB284>:
  188328:	e59d0028 	ldr	r0, [sp, #40]	; 0x28
  18832c:	e3a08001 	mov	r8, #1
  188330:	e5901000 	ldr	r1, [r0]
  188334:	e3510012 	cmp	r1, #18
  188338:	13510013 	cmpne	r1, #19
  18833c:	1a000013 	bne	188390 <loc_FF8DB2EC>
  188340:	e5901094 	ldr	r1, [r0, #148]	; 0x94
  188344:	e0811081 	add	r1, r1, r1, lsl #1
  188348:	e0801101 	add	r1, r0, r1, lsl #2
  18834c:	e2411008 	sub	r1, r1, #8
  188350:	e891020c 	ldm	r1, {r2, r3, r9}
  188354:	e885020c 	stm	r5, {r2, r3, r9}
  188358:	ebfff92e 	bl	186818 <sub_FF8D949C>
  18835c:	e59d0028 	ldr	r0, [sp, #40]	; 0x28
  188360:	e5901094 	ldr	r1, [r0, #148]	; 0x94
  188364:	e59030ac 	ldr	r3, [r0, #172]	; 0xac
  188368:	e59020b0 	ldr	r2, [r0, #176]	; 0xb0
  18836c:	e2800004 	add	r0, r0, #4
  188370:	e12fff33 	blx	r3
  188374:	e59d0028 	ldr	r0, [sp, #40]	; 0x28
  188378:	ebfff931 	bl	186844 <sub_FF8DCC3C>
  18837c:	e59d0028 	ldr	r0, [sp, #40]	; 0x28
  188380:	e5901094 	ldr	r1, [r0, #148]	; 0x94
  188384:	e59020b8 	ldr	r2, [r0, #184]	; 0xb8
  188388:	e59030b4 	ldr	r3, [r0, #180]	; 0xb4
  18838c:	ea0000c6 	b	1886ac <loc_FF8DB608>

00188390 <loc_FF8DB2EC>:
  188390:	e3510014 	cmp	r1, #20
  188394:	13510015 	cmpne	r1, #21
  188398:	13510016 	cmpne	r1, #22
  18839c:	13510017 	cmpne	r1, #23
  1883a0:	13510018 	cmpne	r1, #24
  1883a4:	1a000024 	bne	18843c <loc_FF8DB398>
  1883a8:	e28d300c 	add	r3, sp, #12
  1883ac:	e1a0200d 	mov	r2, sp
  1883b0:	e28d101c 	add	r1, sp, #28
  1883b4:	ebfff918 	bl	18681c <sub_FF8D970C>
  1883b8:	e3500001 	cmp	r0, #1
  1883bc:	e1a09000 	mov	r9, r0
  1883c0:	13590005 	cmpne	r9, #5
  1883c4:	1a000007 	bne	1883e8 <loc_FF8DB344>
  1883c8:	e59d0028 	ldr	r0, [sp, #40]	; 0x28
  1883cc:	e1a02009 	mov	r2, r9
  1883d0:	e5901094 	ldr	r1, [r0, #148]	; 0x94
  1883d4:	e590c0ac 	ldr	ip, [r0, #172]	; 0xac
  1883d8:	e59030b0 	ldr	r3, [r0, #176]	; 0xb0
  1883dc:	e2800004 	add	r0, r0, #4
  1883e0:	e12fff3c 	blx	ip
  1883e4:	ea00000d 	b	188420 <loc_FF8DB37C>

001883e8 <loc_FF8DB344>:
  1883e8:	e59d0028 	ldr	r0, [sp, #40]	; 0x28
  1883ec:	e3590002 	cmp	r9, #2
  1883f0:	e5901094 	ldr	r1, [r0, #148]	; 0x94
  1883f4:	e590c0ac 	ldr	ip, [r0, #172]	; 0xac
  1883f8:	e59030b0 	ldr	r3, [r0, #176]	; 0xb0
  1883fc:	13590006 	cmpne	r9, #6
  188400:	e1a02009 	mov	r2, r9
  188404:	e2800004 	add	r0, r0, #4
  188408:	1a000009 	bne	188434 <loc_FF8DB390>
  18840c:	e12fff3c 	blx	ip
  188410:	e59d0028 	ldr	r0, [sp, #40]	; 0x28
  188414:	e1a0200d 	mov	r2, sp
  188418:	e28d101c 	add	r1, sp, #28
  18841c:	ebfff8ff 	bl	186820 <sub_FF8DAD5C>

00188420 <loc_FF8DB37C>:
  188420:	e59d0028 	ldr	r0, [sp, #40]	; 0x28
  188424:	e59d200c 	ldr	r2, [sp, #12]
  188428:	e1a01009 	mov	r1, r9
  18842c:	ebfff8fc 	bl	186824 <sub_FF8DAFE0>
  188430:	ea00009f 	b	1886b4 <loc_FF8DB610>

00188434 <loc_FF8DB390>:
  188434:	e12fff3c 	blx	ip
  188438:	ea00009d 	b	1886b4 <loc_FF8DB610>

0018843c <loc_FF8DB398>:
  18843c:	e3510028 	cmp	r1, #40	; 0x28
  188440:	13510029 	cmpne	r1, #41	; 0x29
  188444:	1a00000f 	bne	188488 <loc_FF8DB3E4>
  188448:	e5901094 	ldr	r1, [r0, #148]	; 0x94
  18844c:	e0811081 	add	r1, r1, r1, lsl #1
  188450:	e0801101 	add	r1, r0, r1, lsl #2
  188454:	e2411008 	sub	r1, r1, #8
  188458:	e891020c 	ldm	r1, {r2, r3, r9}
  18845c:	e885020c 	stm	r5, {r2, r3, r9}
  188460:	ebfff8e5 	bl	1867fc <sub_FF8D83C8>
  188464:	e59d0028 	ldr	r0, [sp, #40]	; 0x28
  188468:	e5901094 	ldr	r1, [r0, #148]	; 0x94
  18846c:	e59030ac 	ldr	r3, [r0, #172]	; 0xac
  188470:	e59020b0 	ldr	r2, [r0, #176]	; 0xb0
  188474:	e2800004 	add	r0, r0, #4
  188478:	e12fff33 	blx	r3
  18847c:	e59d0028 	ldr	r0, [sp, #40]	; 0x28
  188480:	ebfff8de 	bl	186800 <sub_FF8D8818>
  188484:	ea00008a 	b	1886b4 <loc_FF8DB610>

00188488 <loc_FF8DB3E4>:
  188488:	e2801004 	add	r1, r0, #4
  18848c:	e891020c 	ldm	r1, {r2, r3, r9}
  188490:	e885020c 	stm	r5, {r2, r3, r9}
  188494:	e5901000 	ldr	r1, [r0]
  188498:	e351002c 	cmp	r1, #44	; 0x2c
  18849c:	308ff101 	addcc	pc, pc, r1, lsl #2
  1884a0:	ea00007d 	b	18869c <loc_FF8DB5F8>
  1884a4:	ea00002a 	b	188554 <loc_FF8DB4B0>
  1884a8:	ea000029 	b	188554 <loc_FF8DB4B0>
  1884ac:	ea00002a 	b	18855c <loc_FF8DB4B8>
  1884b0:	ea00002b 	b	188564 <loc_FF8DB4C0>
  1884b4:	ea00002a 	b	188564 <loc_FF8DB4C0>
  1884b8:	ea000029 	b	188564 <loc_FF8DB4C0>
  1884bc:	ea000024 	b	188554 <loc_FF8DB4B0>
  1884c0:	ea000025 	b	18855c <loc_FF8DB4B8>
  1884c4:	ea000026 	b	188564 <loc_FF8DB4C0>
  1884c8:	ea000025 	b	188564 <loc_FF8DB4C0>
  1884cc:	ea00002a 	b	18857c <loc_FF8DB4D8>
  1884d0:	ea000029 	b	18857c <loc_FF8DB4D8>
  1884d4:	ea00006b 	b	188688 <loc_FF8DB5E4>
  1884d8:	ea00006c 	b	188690 <loc_FF8DB5EC>
  1884dc:	ea00006b 	b	188690 <loc_FF8DB5EC>
  1884e0:	ea00006a 	b	188690 <loc_FF8DB5EC>
  1884e4:	ea000069 	b	188690 <loc_FF8DB5EC>
  1884e8:	ea00006a 	b	188698 <loc_FF8DB5F4>
  1884ec:	ea00006a 	b	18869c <loc_FF8DB5F8>
  1884f0:	ea000069 	b	18869c <loc_FF8DB5F8>
  1884f4:	ea000068 	b	18869c <loc_FF8DB5F8>
  1884f8:	ea000067 	b	18869c <loc_FF8DB5F8>
  1884fc:	ea000066 	b	18869c <loc_FF8DB5F8>
  188500:	ea000065 	b	18869c <loc_FF8DB5F8>
  188504:	ea000064 	b	18869c <loc_FF8DB5F8>
  188508:	ea000017 	b	18856c <loc_FF8DB4C8>
  18850c:	ea000018 	b	188574 <loc_FF8DB4D0>
  188510:	ea000017 	b	188574 <loc_FF8DB4D0>
  188514:	ea000016 	b	188574 <loc_FF8DB4D0>
  188518:	ea00001a 	b	188588 <loc_FF8DB4E4>
  18851c:	ea000019 	b	188588 <loc_FF8DB4E4>
  188520:	ea000018 	b	188588 <loc_FF8DB4E4>
  188524:	ea000019 	b	188590 <loc_FF8DB4EC>
  188528:	ea000026 	b	1885c8 <loc_FF8DB524>
  18852c:	ea00005a 	b	18869c <loc_FF8DB5F8>
  188530:	ea000059 	b	18869c <loc_FF8DB5F8>
  188534:	ea000031 	b	188600 <loc_FF8DB55C>
  188538:	ea00003e 	b	188638 <loc_FF8DB594>
  18853c:	ea00004b 	b	188670 <loc_FF8DB5CC>
  188540:	ea00004a 	b	188670 <loc_FF8DB5CC>
  188544:	ea000054 	b	18869c <loc_FF8DB5F8>
  188548:	ea000053 	b	18869c <loc_FF8DB5F8>
  18854c:	ea000049 	b	188678 <loc_FF8DB5D4>
  188550:	ea00004a 	b	188680 <loc_FF8DB5DC>

00188554 <loc_FF8DB4B0>:
  188554:	ebfff8a0 	bl	1867dc <sub_FF8D6AA0>
  188558:	ea00004f 	b	18869c <loc_FF8DB5F8>

0018855c <loc_FF8DB4B8>:
  18855c:	ebfff89f 	bl	1867e0 <sub_FF8D6D6C>
  188560:	ea00004d 	b	18869c <loc_FF8DB5F8>

00188564 <loc_FF8DB4C0>:
  188564:	ebfff89e 	bl	1867e4 <sub_FF8D6FAC>
  188568:	ea00004b 	b	18869c <loc_FF8DB5F8>

0018856c <loc_FF8DB4C8>:
  18856c:	ebfff89d 	bl	1867e8 <sub_FF8D72F4>
  188570:	ea000049 	b	18869c <loc_FF8DB5F8>

00188574 <loc_FF8DB4D0>:
  188574:	ebfff89c 	bl	1867ec <sub_FF8D7524>
  188578:	ea000047 	b	18869c <loc_FF8DB5F8>

0018857c <loc_FF8DB4D8>:
  18857c:	eb00009c 	bl	1887f4 <sub_FF8D7914_my>
  188580:	e3a08000 	mov	r8, #0
  188584:	ea000044 	b	18869c <loc_FF8DB5F8>

00188588 <loc_FF8DB4E4>:
  188588:	ebfff898 	bl	1867f0 <sub_FF8D7AE8>
  18858c:	ea000042 	b	18869c <loc_FF8DB5F8>

00188590 <loc_FF8DB4EC>:
  188590:	e1d010b4 	ldrh	r1, [r0, #4]
  188594:	e1cd11bc 	strh	r1, [sp, #28]
  188598:	e1d410b2 	ldrh	r1, [r4, #2]
  18859c:	e1cd11be 	strh	r1, [sp, #30]
  1885a0:	e1d410b4 	ldrh	r1, [r4, #4]
  1885a4:	e1cd12b0 	strh	r1, [sp, #32]
  1885a8:	e1d410b6 	ldrh	r1, [r4, #6]
  1885ac:	e1cd12b2 	strh	r1, [sp, #34]	; 0x22
  1885b0:	e1d010bc 	ldrh	r1, [r0, #12]
  1885b4:	e1cd12b4 	strh	r1, [sp, #36]	; 0x24
  1885b8:	e1d410ba 	ldrh	r1, [r4, #10]
  1885bc:	e1cd12b6 	strh	r1, [sp, #38]	; 0x26
  1885c0:	ebfff88b 	bl	1867f4 <sub_FF8D8050>
  1885c4:	ea000034 	b	18869c <loc_FF8DB5F8>

001885c8 <loc_FF8DB524>:
  1885c8:	e1d010b4 	ldrh	r1, [r0, #4]
  1885cc:	e1cd11bc 	strh	r1, [sp, #28]
  1885d0:	e1d410b2 	ldrh	r1, [r4, #2]
  1885d4:	e1cd11be 	strh	r1, [sp, #30]
  1885d8:	e1d410b4 	ldrh	r1, [r4, #4]
  1885dc:	e1cd12b0 	strh	r1, [sp, #32]
  1885e0:	e1d410b6 	ldrh	r1, [r4, #6]
  1885e4:	e1cd12b2 	strh	r1, [sp, #34]	; 0x22
  1885e8:	e1d410b8 	ldrh	r1, [r4, #8]
  1885ec:	e1cd12b4 	strh	r1, [sp, #36]	; 0x24
  1885f0:	e1d410ba 	ldrh	r1, [r4, #10]
  1885f4:	e1cd12b6 	strh	r1, [sp, #38]	; 0x26
  1885f8:	ebfff88e 	bl	186838 <sub_FF8DC9B4>
  1885fc:	ea000026 	b	18869c <loc_FF8DB5F8>

00188600 <loc_FF8DB55C>:
  188600:	e1d410b0 	ldrh	r1, [r4]
  188604:	e1cd11bc 	strh	r1, [sp, #28]
  188608:	e1d010b6 	ldrh	r1, [r0, #6]
  18860c:	e1cd11be 	strh	r1, [sp, #30]
  188610:	e1d410b4 	ldrh	r1, [r4, #4]
  188614:	e1cd12b0 	strh	r1, [sp, #32]
  188618:	e1d410b6 	ldrh	r1, [r4, #6]
  18861c:	e1cd12b2 	strh	r1, [sp, #34]	; 0x22
  188620:	e1d410b8 	ldrh	r1, [r4, #8]
  188624:	e1cd12b4 	strh	r1, [sp, #36]	; 0x24
  188628:	e1d410ba 	ldrh	r1, [r4, #10]
  18862c:	e1cd12b6 	strh	r1, [sp, #38]	; 0x26
  188630:	ebfff881 	bl	18683c <sub_FF8DCAE8>
  188634:	ea000018 	b	18869c <loc_FF8DB5F8>

00188638 <loc_FF8DB594>:
  188638:	e1d410b0 	ldrh	r1, [r4]
  18863c:	e1cd11bc 	strh	r1, [sp, #28]
  188640:	e1d410b2 	ldrh	r1, [r4, #2]
  188644:	e1cd11be 	strh	r1, [sp, #30]
  188648:	e1d410b4 	ldrh	r1, [r4, #4]
  18864c:	e1cd12b0 	strh	r1, [sp, #32]
  188650:	e1d410b6 	ldrh	r1, [r4, #6]
  188654:	e1cd12b2 	strh	r1, [sp, #34]	; 0x22
  188658:	e1d010bc 	ldrh	r1, [r0, #12]
  18865c:	e1cd12b4 	strh	r1, [sp, #36]	; 0x24
  188660:	e1d410ba 	ldrh	r1, [r4, #10]
  188664:	e1cd12b6 	strh	r1, [sp, #38]	; 0x26
  188668:	ebfff874 	bl	186840 <sub_FF8DCB94>
  18866c:	ea00000a 	b	18869c <loc_FF8DB5F8>

00188670 <loc_FF8DB5CC>:
  188670:	ebfff860 	bl	1867f8 <sub_FF8D8164>
  188674:	ea000008 	b	18869c <loc_FF8DB5F8>

00188678 <loc_FF8DB5D4>:
  188678:	ebfff861 	bl	186804 <sub_FF8D8930>
  18867c:	ea000006 	b	18869c <loc_FF8DB5F8>

00188680 <loc_FF8DB5DC>:
  188680:	ebfff860 	bl	186808 <sub_FF8D8CC8>
  188684:	ea000004 	b	18869c <loc_FF8DB5F8>

00188688 <loc_FF8DB5E4>:
  188688:	ebfff85f 	bl	18680c <sub_FF8D8F38>
  18868c:	ea000002 	b	18869c <loc_FF8DB5F8>

00188690 <loc_FF8DB5EC>:
  188690:	ebfff85e 	bl	186810 <sub_FF8D9104>
  188694:	ea000000 	b	18869c <loc_FF8DB5F8>

00188698 <loc_FF8DB5F4>:
  188698:	ebfff85d 	bl	186814 <sub_FF8D927C>

0018869c <loc_FF8DB5F8>:
  18869c:	e59d0028 	ldr	r0, [sp, #40]	; 0x28
  1886a0:	e5901094 	ldr	r1, [r0, #148]	; 0x94
  1886a4:	e59020b0 	ldr	r2, [r0, #176]	; 0xb0
  1886a8:	e59030ac 	ldr	r3, [r0, #172]	; 0xac

001886ac <loc_FF8DB608>:
  1886ac:	e2800004 	add	r0, r0, #4
  1886b0:	e12fff33 	blx	r3

001886b4 <loc_FF8DB610>:
  1886b4:	e59d0028 	ldr	r0, [sp, #40]	; 0x28
  1886b8:	e5900000 	ldr	r0, [r0]
  1886bc:	e3500010 	cmp	r0, #16
  1886c0:	0a000009 	beq	1886ec <loc_FF8DB648>
  1886c4:	ca000004 	bgt	1886dc <loc_FF8DB638>
  1886c8:	e3500001 	cmp	r0, #1
  1886cc:	13500004 	cmpne	r0, #4
  1886d0:	1350000e 	cmpne	r0, #14
  1886d4:	1a000011 	bne	188720 <loc_FF8DB67C>
  1886d8:	ea000003 	b	1886ec <loc_FF8DB648>

001886dc <loc_FF8DB638>:
  1886dc:	e3500013 	cmp	r0, #19
  1886e0:	13500018 	cmpne	r0, #24
  1886e4:	1350001b 	cmpne	r0, #27
  1886e8:	1a00000c 	bne	188720 <loc_FF8DB67C>

001886ec <loc_FF8DB648>:
  1886ec:	e1d400f0 	ldrsh	r0, [r4]
  1886f0:	e3700b03 	cmn	r0, #3072	; 0xc00
  1886f4:	11d410f8 	ldrshne	r1, [r4, #8]
  1886f8:	13710b03 	cmnne	r1, #3072	; 0xc00
  1886fc:	11cd01bc 	strhne	r0, [sp, #28]
  188700:	11cd12b4 	strhne	r1, [sp, #36]	; 0x24
  188704:	1a000005 	bne	188720 <loc_FF8DB67C>
  188708:	e28d0010 	add	r0, sp, #16
  18870c:	ebfff84d 	bl	186848 <sub_FF8DCE6C>
  188710:	e1dd01b0 	ldrh	r0, [sp, #16]
  188714:	e1cd01bc 	strh	r0, [sp, #28]
  188718:	e1dd01b8 	ldrh	r0, [sp, #24]
  18871c:	e1cd02b4 	strh	r0, [sp, #36]	; 0x24

00188720 <loc_FF8DB67C>:
  188720:	e59d0028 	ldr	r0, [sp, #40]	; 0x28
  188724:	e3580001 	cmp	r8, #1
  188728:	1a000010 	bne	188770 <loc_FF8DB6CC>
  18872c:	e5901094 	ldr	r1, [r0, #148]	; 0x94
  188730:	e3a0200c 	mov	r2, #12
  188734:	e0811081 	add	r1, r1, r1, lsl #1
  188738:	e0800101 	add	r0, r0, r1, lsl #2
  18873c:	e2408008 	sub	r8, r0, #8
  188740:	e59f0204 	ldr	r0, [pc, #516]	; 18894c <sub_FF8C3364_my+0x8c>
  188744:	e28d101c 	add	r1, sp, #28
  188748:	ebfff7a6 	bl	1865e8 <sub_006BA828>
  18874c:	e59f021c 	ldr	r0, [pc, #540]	; 188970 <sub_FF8C3364_my+0xb0>
  188750:	e3a0200c 	mov	r2, #12
  188754:	e28d101c 	add	r1, sp, #28
  188758:	ebfff7a2 	bl	1865e8 <sub_006BA828>
  18875c:	e59f0210 	ldr	r0, [pc, #528]	; 188974 <sub_FF8C3364_my+0xb4>
  188760:	e3a0200c 	mov	r2, #12
  188764:	e1a01008 	mov	r1, r8
  188768:	ebfff79e 	bl	1865e8 <sub_006BA828>
  18876c:	ea00001d 	b	1887e8 <loc_FF8DB744>

00188770 <loc_FF8DB6CC>:
  188770:	e5900000 	ldr	r0, [r0]
  188774:	e3a03001 	mov	r3, #1
  188778:	e350000b 	cmp	r0, #11
  18877c:	1a00000c 	bne	1887b4 <loc_FF8DB710>
  188780:	e3a02000 	mov	r2, #0
  188784:	e1cd20f0 	strd	r2, [sp]
  188788:	e1a02003 	mov	r2, r3
  18878c:	e1a01003 	mov	r1, r3
  188790:	e3a00000 	mov	r0, #0
  188794:	ebfff80e 	bl	1867d4 <sub_FF8D686C>
  188798:	e3a03001 	mov	r3, #1
  18879c:	e3a02000 	mov	r2, #0
  1887a0:	e1cd20f0 	strd	r2, [sp]
  1887a4:	e1a02003 	mov	r2, r3
  1887a8:	e1a01003 	mov	r1, r3
  1887ac:	e3a00000 	mov	r0, #0
  1887b0:	ea00000b 	b	1887e4 <loc_FF8DB740>

001887b4 <loc_FF8DB710>:
  1887b4:	e3a02001 	mov	r2, #1
  1887b8:	e1cd20f0 	strd	r2, [sp]
  1887bc:	e1a03002 	mov	r3, r2
  1887c0:	e1a01002 	mov	r1, r2
  1887c4:	e1a00002 	mov	r0, r2
  1887c8:	ebfff801 	bl	1867d4 <sub_FF8D686C>
  1887cc:	e3a03001 	mov	r3, #1
  1887d0:	e1a02003 	mov	r2, r3
  1887d4:	e1a01003 	mov	r1, r3
  1887d8:	e1a00003 	mov	r0, r3
  1887dc:	e58d3000 	str	r3, [sp]
  1887e0:	e58d3004 	str	r3, [sp, #4]

001887e4 <loc_FF8DB740>:
  1887e4:	ebfff7fb 	bl	1867d8 <sub_FF8D69E8>

001887e8 <loc_FF8DB744>:
  1887e8:	e59d0028 	ldr	r0, [sp, #40]	; 0x28
  1887ec:	ebfff80e 	bl	18682c <sub_FF8DC8F0>
  1887f0:	eafffe5f 	b	188174 <loc_FF8DB0D0>

001887f4 <sub_FF8D7914_my>:
  1887f4:	e92d41f0 	push	{r4, r5, r6, r7, r8, lr}
  1887f8:	e59f7144 	ldr	r7, [pc, #324]	; 188944 <sub_FF8C3364_my+0x84>
  1887fc:	e1a04000 	mov	r4, r0
  188800:	e597001c 	ldr	r0, [r7, #28]
  188804:	e3a0103e 	mov	r1, #62	; 0x3e
  188808:	ebfff78b 	bl	18663c <sub_FF829C0C>
  18880c:	e3a02000 	mov	r2, #0
  188810:	e1d400f4 	ldrsh	r0, [r4, #4]
  188814:	e3a03001 	mov	r3, #1
  188818:	e1a01002 	mov	r1, r2
  18881c:	ebfff7e7 	bl	1867c0 <sub_FF8D64EC>
  188820:	e1a06000 	mov	r6, r0
  188824:	e1d400f6 	ldrsh	r0, [r4, #6]
  188828:	ebfff7e5 	bl	1867c4 <sub_FF8D66CC>
  18882c:	e1d400f8 	ldrsh	r0, [r4, #8]
  188830:	ebfff7e4 	bl	1867c8 <sub_FF8D6724>
  188834:	e1d400fa 	ldrsh	r0, [r4, #10]
  188838:	ebfff7e3 	bl	1867cc <sub_FF8D677C>
  18883c:	e1d400fc 	ldrsh	r0, [r4, #12]
  188840:	e3a01000 	mov	r1, #0
  188844:	ebfff7e1 	bl	1867d0 <sub_FF8D67D4>
  188848:	e1a05000 	mov	r5, r0
  18884c:	e5940000 	ldr	r0, [r4]
  188850:	e59f811c 	ldr	r8, [pc, #284]	; 188974 <sub_FF8C3364_my+0xb4>
  188854:	e350000b 	cmp	r0, #11
  188858:	03a06000 	moveq	r6, #0
  18885c:	01a05006 	moveq	r5, r6
  188860:	0a000009 	beq	18888c <loc_FF8D79AC>
  188864:	e3560001 	cmp	r6, #1
  188868:	1a000007 	bne	18888c <loc_FF8D79AC>
  18886c:	e1d400f4 	ldrsh	r0, [r4, #4]
  188870:	e59f1100 	ldr	r1, [pc, #256]	; 188978 <sub_FF8C3364_my+0xb8>
  188874:	e3a02002 	mov	r2, #2
  188878:	ebfff79b 	bl	1866ec <sub_FF887B18>
  18887c:	e1c400b4 	strh	r0, [r4, #4]
  188880:	e3a00000 	mov	r0, #0
  188884:	e5870028 	str	r0, [r7, #40]	; 0x28
  188888:	ea000001 	b	188894 <loc_FF8D79B4>

0018888c <loc_FF8D79AC>:
  18888c:	e1d800b0 	ldrh	r0, [r8]
  188890:	e1c400b4 	strh	r0, [r4, #4]

00188894 <loc_FF8D79B4>:
  188894:	e3550001 	cmp	r5, #1
  188898:	11d800b8 	ldrhne	r0, [r8, #8]
  18889c:	1a000003 	bne	1888b0 <loc_FF8D79D0>
  1888a0:	e1d400fc 	ldrsh	r0, [r4, #12]
  1888a4:	e59f10d0 	ldr	r1, [pc, #208]	; 18897c <sub_FF8C3364_my+0xbc>
  1888a8:	e3a02020 	mov	r2, #32
  1888ac:	ebfff7e0 	bl	186834 <sub_FF8DC970>

001888b0 <loc_FF8D79D0>:
  1888b0:	e1c400bc 	strh	r0, [r4, #12]
  1888b4:	e1d400f6 	ldrsh	r0, [r4, #6]
  1888b8:	eb000000 	bl	1888c0 <sub_FF8C3364_my>
  1888bc:	e59ff0bc 	ldr	pc, [pc, #188]	; 188980 <sub_FF8C3364_my+0xc0>

001888c0 <sub_FF8C3364_my>:
  1888c0:	e92d4070 	push	{r4, r5, r6, lr}
  1888c4:	e59f50b8 	ldr	r5, [pc, #184]	; 188984 <sub_FF8C3364_my+0xc4>
  1888c8:	e1a04000 	mov	r4, r0
  1888cc:	e5950004 	ldr	r0, [r5, #4]
  1888d0:	e3500001 	cmp	r0, #1
  1888d4:	159f20ac 	ldrne	r2, [pc, #172]	; 188988 <sub_FF8C3364_my+0xc8>
  1888d8:	159f10ac 	ldrne	r1, [pc, #172]	; 18898c <sub_FF8C3364_my+0xcc>
  1888dc:	13a00000 	movne	r0, #0
  1888e0:	1bfff8e1 	blne	186c6c <_DebugAssert>
  1888e4:	e3740b03 	cmn	r4, #3072	; 0xc00
  1888e8:	01d540f2 	ldrsheq	r4, [r5, #2]
  1888ec:	e3740b03 	cmn	r4, #3072	; 0xc00
  1888f0:	059f2098 	ldreq	r2, [pc, #152]	; 188990 <sub_FF8C3364_my+0xd0>
  1888f4:	059f1090 	ldreq	r1, [pc, #144]	; 18898c <sub_FF8C3364_my+0xcc>
  1888f8:	03a00000 	moveq	r0, #0
  1888fc:	e1c540b2 	strh	r4, [r5, #2]
  188900:	0bfff8d9 	bleq	186c6c <_DebugAssert>
  188904:	e1a00004 	mov	r0, r4
  188908:	eb004aa1 	bl	19b394 <apex2us>
  18890c:	e1a04000 	mov	r4, r0
  188910:	e1a00004 	mov	r0, r4
  188914:	ebfff7cd 	bl	186850 <sub_FF90F658>
  188918:	e3100001 	tst	r0, #1
  18891c:	08bd8070 	popeq	{r4, r5, r6, pc}
  188920:	e8bd4070 	pop	{r4, r5, r6, lr}
  188924:	e59f2068 	ldr	r2, [pc, #104]	; 188994 <sub_FF8C3364_my+0xd4>
  188928:	e59f105c 	ldr	r1, [pc, #92]	; 18898c <sub_FF8C3364_my+0xcc>
  18892c:	e3a00000 	mov	r0, #0
  188930:	eafff8cd 	b	186c6c <_DebugAssert>
  188934:	0001cf78 	.word	0x0001cf78
  188938:	0001cd88 	.word	0x0001cd88
  18893c:	ff99a044 	.word	0xff99a044
  188940:	ff999e30 	.word	0xff999e30
  188944:	000043dc 	.word	0x000043dc
  188948:	00000bb8 	.word	0x00000bb8
  18894c:	0005be18 	.word	0x0005be18
  188950:	ff8d6454 	.word	0xff8d6454
  188954:	00001798 	.word	0x00001798
  188958:	ff8d6464 	.word	0xff8d6464
  18895c:	000017a2 	.word	0x000017a2
  188960:	ff8d6484 	.word	0xff8d6484
  188964:	fffff400 	.word	0xfffff400
  188968:	000017da 	.word	0x000017da
  18896c:	ff8d6c20 	.word	0xff8d6c20
  188970:	0005be24 	.word	0x0005be24
  188974:	0005be30 	.word	0x0005be30
  188978:	ff8d6444 	.word	0xff8d6444
  18897c:	ff8d64c8 	.word	0xff8d64c8
  188980:	ff8d79dc 	.word	0xff8d79dc
  188984:	00003fbc 	.word	0x00003fbc
  188988:	0000016b 	.word	0x0000016b
  18898c:	ff8c3108 	.word	0xff8c3108
  188990:	00000171 	.word	0x00000171
  188994:	00000176 	.word	0x00000176

00188998 <change_video_tables>:
  188998:	e12fff1e 	bx	lr

0018899c <set_quality>:
  18899c:	e92d4010 	push	{r4, lr}
  1889a0:	e1a04000 	mov	r4, r0
  1889a4:	e59f3030 	ldr	r3, [pc, #48]	; 1889dc <set_quality+0x40>
  1889a8:	e5932574 	ldr	r2, [r3, #1396]	; 0x574
  1889ac:	e3520000 	cmp	r2, #0
  1889b0:	0a000007 	beq	1889d4 <set_quality+0x38>
  1889b4:	e5933578 	ldr	r3, [r3, #1400]	; 0x578
  1889b8:	e2433001 	sub	r3, r3, #1
  1889bc:	e3a0001d 	mov	r0, #29
  1889c0:	e0000093 	mul	r0, r3, r0
  1889c4:	e3e01061 	mvn	r1, #97	; 0x61
  1889c8:	eb00413f 	bl	198ecc <__aeabi_idiv>
  1889cc:	e280000c 	add	r0, r0, #12
  1889d0:	e5840000 	str	r0, [r4]
  1889d4:	e8bd4010 	pop	{r4, lr}
  1889d8:	e12fff1e 	bx	lr
  1889dc:	001a3440 	.word	0x001a3440

001889e0 <movie_record_task>:
  1889e0:	e92d47fc 	push	{r2, r3, r4, r5, r6, r7, r8, r9, sl, lr}
  1889e4:	e59f8190 	ldr	r8, [pc, #400]	; 188b7c <loc_FF995ED0+0x20>
  1889e8:	e59f4190 	ldr	r4, [pc, #400]	; 188b80 <loc_FF995ED0+0x24>
  1889ec:	e59f9190 	ldr	r9, [pc, #400]	; 188b84 <loc_FF995ED0+0x28>
  1889f0:	e59fa190 	ldr	sl, [pc, #400]	; 188b88 <loc_FF995ED0+0x2c>
  1889f4:	e3e07000 	mvn	r7, #0
  1889f8:	e3a05001 	mov	r5, #1
  1889fc:	e3a06000 	mov	r6, #0

00188a00 <loc_FF995D7C>:
  188a00:	e5940030 	ldr	r0, [r4, #48]	; 0x30
  188a04:	e3a02000 	mov	r2, #0
  188a08:	e28d1004 	add	r1, sp, #4
  188a0c:	ebfff70b 	bl	186640 <sub_FF829E30>
  188a10:	e5940038 	ldr	r0, [r4, #56]	; 0x38
  188a14:	e3500000 	cmp	r0, #0
  188a18:	15940014 	ldrne	r0, [r4, #20]
  188a1c:	13500002 	cmpne	r0, #2
  188a20:	1594004c 	ldrne	r0, [r4, #76]	; 0x4c
  188a24:	13500006 	cmpne	r0, #6
  188a28:	1a00004b 	bne	188b5c <loc_FF995ED0>
  188a2c:	e59d0004 	ldr	r0, [sp, #4]
  188a30:	e5901000 	ldr	r1, [r0]
  188a34:	e2411002 	sub	r1, r1, #2
  188a38:	e351000d 	cmp	r1, #13
  188a3c:	308ff101 	addcc	pc, pc, r1, lsl #2
  188a40:	ea000045 	b	188b5c <loc_FF995ED0>
  188a44:	ea00001f 	b	188ac8 <loc_FF995E44>
  188a48:	ea00002b 	b	188afc <loc_FF995E70>
  188a4c:	ea00002e 	b	188b0c <loc_FF995E80>
  188a50:	ea00002f 	b	188b14 <loc_FF995E88>
  188a54:	ea00001d 	b	188ad0 <loc_FF995E4C>
  188a58:	ea00002f 	b	188b1c <loc_FF995E90>
  188a5c:	ea000039 	b	188b48 <loc_FF995EBC>
  188a60:	ea00003a 	b	188b50 <loc_FF995EC4>
  188a64:	ea00001e 	b	188ae4 <loc_FF995E58>
  188a68:	ea00003b 	b	188b5c <loc_FF995ED0>
  188a6c:	ea000039 	b	188b58 <loc_FF995ECC>
  188a70:	ea00000b 	b	188aa4 <loc_FF995E20>
  188a74:	eaffffff 	b	188a78 <loc_FF995DF4>

00188a78 <loc_FF995DF4>:
  188a78:	e5846048 	str	r6, [r4, #72]	; 0x48
  188a7c:	e584603c 	str	r6, [r4, #60]	; 0x3c
  188a80:	e58470d4 	str	r7, [r4, #212]	; 0xd4
  188a84:	e1c460b8 	strh	r6, [r4, #8]
  188a88:	e58480b4 	str	r8, [r4, #180]	; 0xb4
  188a8c:	e5940014 	ldr	r0, [r4, #20]
  188a90:	e2800001 	add	r0, r0, #1
  188a94:	e5840014 	str	r0, [r4, #20]
  188a98:	e3a00006 	mov	r0, #6
  188a9c:	e584004c 	str	r0, [r4, #76]	; 0x4c
  188aa0:	ea000006 	b	188ac0 <loc_FF995E3C>

00188aa4 <loc_FF995E20>:
  188aa4:	e5846048 	str	r6, [r4, #72]	; 0x48
  188aa8:	e58470d4 	str	r7, [r4, #212]	; 0xd4
  188aac:	e58480b4 	str	r8, [r4, #180]	; 0xb4
  188ab0:	e5940014 	ldr	r0, [r4, #20]
  188ab4:	e2800001 	add	r0, r0, #1
  188ab8:	e5840014 	str	r0, [r4, #20]
  188abc:	e584504c 	str	r5, [r4, #76]	; 0x4c

00188ac0 <loc_FF995E3C>:
  188ac0:	e584500c 	str	r5, [r4, #12]
  188ac4:	ea000024 	b	188b5c <loc_FF995ED0>

00188ac8 <loc_FF995E44>:
  188ac8:	ebfff766 	bl	186868 <sub_FF995644>
  188acc:	ea000022 	b	188b5c <loc_FF995ED0>

00188ad0 <loc_FF995E4C>:
  188ad0:	e59410b4 	ldr	r1, [r4, #180]	; 0xb4
  188ad4:	e12fff31 	blx	r1
  188ad8:	e59f00ac 	ldr	r0, [pc, #172]	; 188b8c <loc_FF995ED0+0x30>
  188adc:	ebffffae 	bl	18899c <set_quality>
  188ae0:	ea00001d 	b	188b5c <loc_FF995ED0>

00188ae4 <loc_FF995E58>:
  188ae4:	e5901018 	ldr	r1, [r0, #24]
  188ae8:	e5902028 	ldr	r2, [r0, #40]	; 0x28
  188aec:	e5903024 	ldr	r3, [r0, #36]	; 0x24
  188af0:	e5900004 	ldr	r0, [r0, #4]
  188af4:	ebfff784 	bl	18690c <sub_FFAD3350>
  188af8:	ea000017 	b	188b5c <loc_FF995ED0>

00188afc <loc_FF995E70>:
  188afc:	e594004c 	ldr	r0, [r4, #76]	; 0x4c
  188b00:	e3500005 	cmp	r0, #5
  188b04:	1584503c 	strne	r5, [r4, #60]	; 0x3c
  188b08:	ea000013 	b	188b5c <loc_FF995ED0>

00188b0c <loc_FF995E80>:
  188b0c:	ebfff754 	bl	186864 <sub_FF9952A4>
  188b10:	ea000011 	b	188b5c <loc_FF995ED0>

00188b14 <loc_FF995E88>:
  188b14:	ebfff751 	bl	186860 <sub_FF995164>
  188b18:	ea00000f 	b	188b5c <loc_FF995ED0>

00188b1c <loc_FF995E90>:
  188b1c:	e59f006c 	ldr	r0, [pc, #108]	; 188b90 <loc_FF995ED0+0x34>
  188b20:	e5900008 	ldr	r0, [r0, #8]
  188b24:	e3500000 	cmp	r0, #0
  188b28:	159f2064 	ldrne	r2, [pc, #100]	; 188b94 <loc_FF995ED0+0x38>
  188b2c:	159f0064 	ldrne	r0, [pc, #100]	; 188b98 <loc_FF995ED0+0x3c>
  188b30:	13a03000 	movne	r3, #0
  188b34:	11a01003 	movne	r1, r3
  188b38:	1bfff6e7 	blne	1866dc <sub_FF86EA38>
  188b3c:	e3a00003 	mov	r0, #3
  188b40:	e584004c 	str	r0, [r4, #76]	; 0x4c
  188b44:	ea000004 	b	188b5c <loc_FF995ED0>

00188b48 <loc_FF995EBC>:
  188b48:	ebfff743 	bl	18685c <sub_FF994FF8>
  188b4c:	ea000002 	b	188b5c <loc_FF995ED0>

00188b50 <loc_FF995EC4>:
  188b50:	ebfff745 	bl	18686c <sub_FF9966D4>
  188b54:	ea000000 	b	188b5c <loc_FF995ED0>

00188b58 <loc_FF995ECC>:
  188b58:	ebfff73e 	bl	186858 <sub_FF994ED4>

00188b5c <loc_FF995ED0>:
  188b5c:	e59d1004 	ldr	r1, [sp, #4]
  188b60:	e59f3034 	ldr	r3, [pc, #52]	; 188b9c <loc_FF995ED0+0x40>
  188b64:	e5816000 	str	r6, [r1]
  188b68:	e58d9000 	str	r9, [sp]
  188b6c:	e5940034 	ldr	r0, [r4, #52]	; 0x34
  188b70:	e1a0200a 	mov	r2, sl
  188b74:	ebfff6a8 	bl	18661c <sub_FF826774>
  188b78:	eaffffa0 	b	188a00 <loc_FF995D7C>
  188b7c:	ff99595c 	.word	0xff99595c
  188b80:	00007080 	.word	0x00007080
  188b84:	00000709 	.word	0x00000709
  188b88:	00002710 	.word	0x00002710
  188b8c:	0000707c 	.word	0x0000707c
  188b90:	000d08c8 	.word	0x000d08c8
  188b94:	ff995084 	.word	0xff995084
  188b98:	ff99510c 	.word	0xff99510c
  188b9c:	ff994bb0 	.word	0xff994bb0

00188ba0 <filewrite_get_jpeg_chunk>:
  188ba0:	e92d45f0 	push	{r4, r5, r6, r7, r8, sl, lr}
  188ba4:	e1a04000 	mov	r4, r0
  188ba8:	e1a05001 	mov	r5, r1
  188bac:	e1a06002 	mov	r6, r2
  188bb0:	e1a08003 	mov	r8, r3
  188bb4:	e3e03000 	mvn	r3, #0
  188bb8:	e5883000 	str	r3, [r8]
  188bbc:	e59fa0bc 	ldr	sl, [pc, #188]	; 188c80 <filewrite_get_jpeg_chunk+0xe0>
  188bc0:	e59a3000 	ldr	r3, [sl]
  188bc4:	e3530000 	cmp	r3, #0
  188bc8:	1a00000a 	bne	188bf8 <filewrite_get_jpeg_chunk+0x58>
  188bcc:	e3a07032 	mov	r7, #50	; 0x32
  188bd0:	e3a0000a 	mov	r0, #10
  188bd4:	ebfff868 	bl	186d7c <_SleepTask>
  188bd8:	e59a3000 	ldr	r3, [sl]
  188bdc:	e3530000 	cmp	r3, #0
  188be0:	1a000004 	bne	188bf8 <filewrite_get_jpeg_chunk+0x58>
  188be4:	e2577001 	subs	r7, r7, #1
  188be8:	1afffff8 	bne	188bd0 <filewrite_get_jpeg_chunk+0x30>
  188bec:	e5847000 	str	r7, [r4]
  188bf0:	e5857000 	str	r7, [r5]
  188bf4:	ea00001e 	b	188c74 <filewrite_get_jpeg_chunk+0xd4>
  188bf8:	e59f2080 	ldr	r2, [pc, #128]	; 188c80 <filewrite_get_jpeg_chunk+0xe0>
  188bfc:	e892000a 	ldm	r2, {r1, r3}
  188c00:	e0810183 	add	r0, r1, r3, lsl #3
  188c04:	e791c183 	ldr	ip, [r1, r3, lsl #3]
  188c08:	e584c000 	str	ip, [r4]
  188c0c:	e5900004 	ldr	r0, [r0, #4]
  188c10:	e5850000 	str	r0, [r5]
  188c14:	e3560000 	cmp	r6, #0
  188c18:	0592c00c 	ldreq	ip, [r2, #12]
  188c1c:	0582c008 	streq	ip, [r2, #8]
  188c20:	e592c008 	ldr	ip, [r2, #8]
  188c24:	e060000c 	rsb	r0, r0, ip
  188c28:	e5820008 	str	r0, [r2, #8]
  188c2c:	e3530000 	cmp	r3, #0
  188c30:	059f2048 	ldreq	r2, [pc, #72]	; 188c80 <filewrite_get_jpeg_chunk+0xe0>
  188c34:	05922010 	ldreq	r2, [r2, #16]
  188c38:	05882000 	streq	r2, [r8]
  188c3c:	e2833001 	add	r3, r3, #1
  188c40:	e59f2038 	ldr	r2, [pc, #56]	; 188c80 <filewrite_get_jpeg_chunk+0xe0>
  188c44:	e5823004 	str	r3, [r2, #4]
  188c48:	e3500000 	cmp	r0, #0
  188c4c:	da000008 	ble	188c74 <filewrite_get_jpeg_chunk+0xd4>
  188c50:	e3530006 	cmp	r3, #6
  188c54:	c3a00003 	movgt	r0, #3
  188c58:	ca000006 	bgt	188c78 <filewrite_get_jpeg_chunk+0xd8>
  188c5c:	e0813183 	add	r3, r1, r3, lsl #3
  188c60:	e5930004 	ldr	r0, [r3, #4]
  188c64:	e3500000 	cmp	r0, #0
  188c68:	13a00001 	movne	r0, #1
  188c6c:	03a00003 	moveq	r0, #3
  188c70:	ea000000 	b	188c78 <filewrite_get_jpeg_chunk+0xd8>
  188c74:	e3a00002 	mov	r0, #2
  188c78:	e8bd45f0 	pop	{r4, r5, r6, r7, r8, sl, lr}
  188c7c:	e12fff1e 	bx	lr
  188c80:	001a82e8 	.word	0x001a82e8

00188c84 <filewrite_set_discard_jpeg>:
  188c84:	e59f3004 	ldr	r3, [pc, #4]	; 188c90 <filewrite_set_discard_jpeg+0xc>
  188c88:	e5830014 	str	r0, [r3, #20]
  188c8c:	e12fff1e 	bx	lr
  188c90:	001a82e8 	.word	0x001a82e8

00188c94 <filewrite_main_hook>:
  188c94:	e92d4010 	push	{r4, lr}
  188c98:	e59f404c 	ldr	r4, [pc, #76]	; 188cec <filewrite_main_hook+0x58>
  188c9c:	e3a03000 	mov	r3, #0
  188ca0:	e5843004 	str	r3, [r4, #4]
  188ca4:	e590304c 	ldr	r3, [r0, #76]	; 0x4c
  188ca8:	e3130040 	tst	r3, #64	; 0x40
  188cac:	1a000003 	bne	188cc0 <filewrite_main_hook+0x2c>
  188cb0:	e5903004 	ldr	r3, [r0, #4]
  188cb4:	e3530000 	cmp	r3, #0
  188cb8:	03e03000 	mvneq	r3, #0
  188cbc:	0a000000 	beq	188cc4 <filewrite_main_hook+0x30>
  188cc0:	e5903004 	ldr	r3, [r0, #4]
  188cc4:	e5843010 	str	r3, [r4, #16]
  188cc8:	e5903008 	ldr	r3, [r0, #8]
  188ccc:	e584300c 	str	r3, [r4, #12]
  188cd0:	e2800014 	add	r0, r0, #20
  188cd4:	e5840000 	str	r0, [r4]
  188cd8:	eb004c33 	bl	19bdac <__remotecap_jpeg_available_from_arm>
  188cdc:	e3a03000 	mov	r3, #0
  188ce0:	e5843000 	str	r3, [r4]
  188ce4:	e8bd4010 	pop	{r4, lr}
  188ce8:	e12fff1e 	bx	lr
  188cec:	001a82e8 	.word	0x001a82e8

00188cf0 <filewrite_jpeg_complete>:
  188cf0:	e52de004 	push	{lr}		; (str lr, [sp, #-4]!)
  188cf4:	e59f303c 	ldr	r3, [pc, #60]	; 188d38 <filewrite_jpeg_complete+0x48>
  188cf8:	e5930014 	ldr	r0, [r3, #20]
  188cfc:	e3500000 	cmp	r0, #0
  188d00:	0a00000a 	beq	188d30 <filewrite_jpeg_complete+0x40>
  188d04:	e5931018 	ldr	r1, [r3, #24]
  188d08:	e593200c 	ldr	r2, [r3, #12]
  188d0c:	e1510002 	cmp	r1, r2
  188d10:	ba000005 	blt	188d2c <filewrite_jpeg_complete+0x3c>
  188d14:	e3a02000 	mov	r2, #0
  188d18:	e583201c 	str	r2, [r3, #28]
  188d1c:	e5832018 	str	r2, [r3, #24]
  188d20:	e5832014 	str	r2, [r3, #20]
  188d24:	e3a00001 	mov	r0, #1
  188d28:	eb004c22 	bl	19bdb8 <__remotecap_type_complete_from_arm>
  188d2c:	e3a00001 	mov	r0, #1
  188d30:	e49de004 	pop	{lr}		; (ldr lr, [sp], #4)
  188d34:	e12fff1e 	bx	lr
  188d38:	001a82e8 	.word	0x001a82e8

00188d3c <remotecap_jpeg_chunks_done>:
  188d3c:	e3a02000 	mov	r2, #0
  188d40:	e59f3004 	ldr	r3, [pc, #4]	; 188d4c <remotecap_jpeg_chunks_done+0x10>
  188d44:	e5832000 	str	r2, [r3]
  188d48:	e12fff1e 	bx	lr
  188d4c:	001a82e8 	.word	0x001a82e8

00188d50 <fwt_open>:
  188d50:	e52de004 	push	{lr}		; (str lr, [sp, #-4]!)
  188d54:	e59f301c 	ldr	r3, [pc, #28]	; 188d78 <fwt_open+0x28>
  188d58:	e593c014 	ldr	ip, [r3, #20]
  188d5c:	e35c0000 	cmp	ip, #0
  188d60:	13a02001 	movne	r2, #1
  188d64:	1583201c 	strne	r2, [r3, #28]
  188d68:	13a000ff 	movne	r0, #255	; 0xff
  188d6c:	0bfff7e9 	bleq	186d18 <_Open>
  188d70:	e49de004 	pop	{lr}		; (ldr lr, [sp], #4)
  188d74:	e12fff1e 	bx	lr
  188d78:	001a82e8 	.word	0x001a82e8

00188d7c <fwt_write>:
  188d7c:	e92d4010 	push	{r4, lr}
  188d80:	e1a03002 	mov	r3, r2
  188d84:	e59fc028 	ldr	ip, [pc, #40]	; 188db4 <fwt_write+0x38>
  188d88:	e59c401c 	ldr	r4, [ip, #28]
  188d8c:	e3540000 	cmp	r4, #0
  188d90:	159c2018 	ldrne	r2, [ip, #24]
  188d94:	10822003 	addne	r2, r2, r3
  188d98:	158c2018 	strne	r2, [ip, #24]
  188d9c:	1a000001 	bne	188da8 <fwt_write+0x2c>
  188da0:	ebfff800 	bl	186da8 <_Write>
  188da4:	e1a03000 	mov	r3, r0
  188da8:	e1a00003 	mov	r0, r3
  188dac:	e8bd4010 	pop	{r4, lr}
  188db0:	e12fff1e 	bx	lr
  188db4:	001a82e8 	.word	0x001a82e8

00188db8 <fwt_lseek>:
  188db8:	e52de004 	push	{lr}		; (str lr, [sp, #-4]!)
  188dbc:	e1a03001 	mov	r3, r1
  188dc0:	e59fc01c 	ldr	ip, [pc, #28]	; 188de4 <fwt_lseek+0x2c>
  188dc4:	e59cc01c 	ldr	ip, [ip, #28]
  188dc8:	e35c0000 	cmp	ip, #0
  188dcc:	1a000001 	bne	188dd8 <fwt_lseek+0x20>
  188dd0:	ebfff805 	bl	186dec <_lseek>
  188dd4:	e1a03000 	mov	r3, r0
  188dd8:	e1a00003 	mov	r0, r3
  188ddc:	e49de004 	pop	{lr}		; (ldr lr, [sp], #4)
  188de0:	e12fff1e 	bx	lr
  188de4:	001a82e8 	.word	0x001a82e8

00188de8 <fwt_close>:
  188de8:	e92d4030 	push	{r4, r5, lr}
  188dec:	e59f4024 	ldr	r4, [pc, #36]	; 188e18 <fwt_close+0x30>
  188df0:	e594501c 	ldr	r5, [r4, #28]
  188df4:	e3550000 	cmp	r5, #0
  188df8:	1a000002 	bne	188e08 <fwt_close+0x20>
  188dfc:	ebfff798 	bl	186c64 <_Close>
  188e00:	e5845018 	str	r5, [r4, #24]
  188e04:	ea000001 	b	188e10 <fwt_close+0x28>
  188e08:	ebffffb8 	bl	188cf0 <filewrite_jpeg_complete>
  188e0c:	e3a00000 	mov	r0, #0
  188e10:	e8bd4030 	pop	{r4, r5, lr}
  188e14:	e12fff1e 	bx	lr
  188e18:	001a82e8 	.word	0x001a82e8

00188e1c <filewritetask>:
  188e1c:	e92d40fe 	push	{r1, r2, r3, r4, r5, r6, r7, lr}
  188e20:	e59f5498 	ldr	r5, [pc, #1176]	; 1892c0 <loc_FFAB91E0+0x8>
  188e24:	e3a06000 	mov	r6, #0

00188e28 <loc_FFAB8CFC>:
  188e28:	e5950010 	ldr	r0, [r5, #16]
  188e2c:	e3a02000 	mov	r2, #0
  188e30:	e28d1008 	add	r1, sp, #8
  188e34:	ebfff601 	bl	186640 <sub_FF829E30>
  188e38:	e3500000 	cmp	r0, #0
  188e3c:	159f2480 	ldrne	r2, [pc, #1152]	; 1892c4 <loc_FFAB91E0+0xc>
  188e40:	159f1480 	ldrne	r1, [pc, #1152]	; 1892c8 <loc_FFAB91E0+0x10>
  188e44:	13a00000 	movne	r0, #0
  188e48:	1bfff787 	blne	186c6c <_DebugAssert>
  188e4c:	e59d0008 	ldr	r0, [sp, #8]
  188e50:	e5901000 	ldr	r1, [r0]
  188e54:	e351000d 	cmp	r1, #13
  188e58:	308ff101 	addcc	pc, pc, r1, lsl #2
  188e5c:	eafffff1 	b	188e28 <loc_FFAB8CFC>
  188e60:	ea000064 	b	188ff8 <loc_FFAB8EAC>
  188e64:	ea000063 	b	188ff8 <loc_FFAB8EAC>
  188e68:	ea000062 	b	188ff8 <loc_FFAB8EAC>
  188e6c:	ea000061 	b	188ff8 <loc_FFAB8EAC>
  188e70:	ea000060 	b	188ff8 <loc_FFAB8EAC>
  188e74:	ea00005f 	b	188ff8 <loc_FFAB8EAC>
  188e78:	ea00005e 	b	188ff8 <loc_FFAB8EAC>
  188e7c:	ea00005f 	b	189000 <loc_FFAB8EB4>
  188e80:	ea000003 	b	188e94 <loc_FFAB8D68>
  188e84:	ea000036 	b	188f64 <loc_FFAB8E28>
  188e88:	ea000041 	b	188f94 <loc_FFAB8E58>
  188e8c:	ea00001d 	b	188f08 <loc_FFAB8DDC>
  188e90:	ea000031 	b	188f5c <loc_FFAB8E20>

00188e94 <loc_FFAB8D68>:
  188e94:	e1a04005 	mov	r4, r5
  188e98:	e58d6000 	str	r6, [sp]

00188e9c <loc_FFAB8D70>:
  188e9c:	e5940010 	ldr	r0, [r4, #16]
  188ea0:	e1a0100d 	mov	r1, sp
  188ea4:	ebfff5e6 	bl	186644 <sub_FF82A0AC>
  188ea8:	e59d0000 	ldr	r0, [sp]
  188eac:	e3500000 	cmp	r0, #0
  188eb0:	0a000004 	beq	188ec8 <loc_FFAB8D9C>
  188eb4:	e5940010 	ldr	r0, [r4, #16]
  188eb8:	e3a02000 	mov	r2, #0
  188ebc:	e28d1004 	add	r1, sp, #4
  188ec0:	ebfff5de 	bl	186640 <sub_FF829E30>
  188ec4:	eafffff4 	b	188e9c <loc_FFAB8D70>

00188ec8 <loc_FFAB8D9C>:
  188ec8:	e5940004 	ldr	r0, [r4, #4]
  188ecc:	e3700001 	cmn	r0, #1
  188ed0:	0a000009 	beq	188efc <loc_FFAB8DD0>
  188ed4:	ebffffc3 	bl	188de8 <fwt_close>
  188ed8:	e3e00000 	mvn	r0, #0
  188edc:	e5840004 	str	r0, [r4, #4]
  188ee0:	e3a01000 	mov	r1, #0
  188ee4:	e3a00048 	mov	r0, #72	; 0x48
  188ee8:	ebfff628 	bl	186790 <sub_FF8B0664>
  188eec:	e59f03d8 	ldr	r0, [pc, #984]	; 1892cc <loc_FFAB91E0+0x14>
  188ef0:	ebfff5ea 	bl	1866a0 <sub_FF83222C>
  188ef4:	e3a01000 	mov	r1, #0
  188ef8:	ebfff5e7 	bl	18669c <sub_FF8300F8>

00188efc <loc_FFAB8DD0>:
  188efc:	e594000c 	ldr	r0, [r4, #12]
  188f00:	ebfff77b 	bl	186cf4 <_GiveSemaphore>
  188f04:	eaffffc7 	b	188e28 <loc_FFAB8CFC>

00188f08 <loc_FFAB8DDC>:
  188f08:	e1a04000 	mov	r4, r0
  188f0c:	e2800058 	add	r0, r0, #88	; 0x58
  188f10:	ebfff5e2 	bl	1866a0 <sub_FF83222C>
  188f14:	e3a01000 	mov	r1, #0
  188f18:	ebfff5de 	bl	186698 <sub_FF82FFB8>
  188f1c:	e3a01000 	mov	r1, #0
  188f20:	e3a00047 	mov	r0, #71	; 0x47
  188f24:	ebfff619 	bl	186790 <sub_FF8B0664>
  188f28:	e594000c 	ldr	r0, [r4, #12]
  188f2c:	ebfff5d6 	bl	18668c <sub_FF82F038>
  188f30:	e2840058 	add	r0, r4, #88	; 0x58
  188f34:	e59f3394 	ldr	r3, [pc, #916]	; 1892d0 <loc_FFAB91E0+0x18>
  188f38:	e5933000 	ldr	r3, [r3]
  188f3c:	e3530000 	cmp	r3, #0
  188f40:	1a000024 	bne	188fd8 <loc_A>
  188f44:	ebfff5b8 	bl	18662c <sub_FF8281A4>
  188f48:	e3a01000 	mov	r1, #0
  188f4c:	e3a00048 	mov	r0, #72	; 0x48
  188f50:	ebfff60e 	bl	186790 <sub_FF8B0664>
  188f54:	e2840058 	add	r0, r4, #88	; 0x58
  188f58:	ea00001e 	b	188fd8 <loc_A>

00188f5c <loc_FFAB8E20>:
  188f5c:	eb000029 	bl	189008 <sub_FFAB89A4_my>
  188f60:	eaffffb0 	b	188e28 <loc_FFAB8CFC>

00188f64 <loc_FFAB8E28>:
  188f64:	e5901004 	ldr	r1, [r0, #4]
  188f68:	e1a04000 	mov	r4, r0
  188f6c:	e5950004 	ldr	r0, [r5, #4]
  188f70:	e3a02000 	mov	r2, #0
  188f74:	ebffff8f 	bl	188db8 <fwt_lseek>
  188f78:	e3700001 	cmn	r0, #1
  188f7c:	059f0350 	ldreq	r0, [pc, #848]	; 1892d4 <loc_FFAB91E0+0x1c>
  188f80:	01a01004 	moveq	r1, r4
  188f84:	05840010 	streq	r0, [r4, #16]
  188f88:	03a00007 	moveq	r0, #7
  188f8c:	0bfff65a 	bleq	1868fc <sub_FFAB88E4>
  188f90:	eaffffa4 	b	188e28 <loc_FFAB8CFC>

00188f94 <loc_FFAB8E58>:
  188f94:	e1a04000 	mov	r4, r0
  188f98:	e1d005d8 	ldrsb	r0, [r0, #88]	; 0x58
  188f9c:	e3500000 	cmp	r0, #0
  188fa0:	0affffa0 	beq	188e28 <loc_FFAB8CFC>
  188fa4:	e5cd0004 	strb	r0, [sp, #4]
  188fa8:	e2840058 	add	r0, r4, #88	; 0x58
  188fac:	e5cd6005 	strb	r6, [sp, #5]
  188fb0:	ebfff5ba 	bl	1866a0 <sub_FF83222C>
  188fb4:	e3a01000 	mov	r1, #0
  188fb8:	ebfff5b6 	bl	186698 <sub_FF82FFB8>
  188fbc:	e59f330c 	ldr	r3, [pc, #780]	; 1892d0 <loc_FFAB91E0+0x18>
  188fc0:	e5933000 	ldr	r3, [r3]
  188fc4:	e3530000 	cmp	r3, #0
  188fc8:	1a000001 	bne	188fd4 <loc_B>
  188fcc:	e28d0004 	add	r0, sp, #4
  188fd0:	ebfff5ae 	bl	186690 <sub_FF82F050>

00188fd4 <loc_B>:
  188fd4:	e2840058 	add	r0, r4, #88	; 0x58

00188fd8 <loc_A>:
  188fd8:	ebfff5b0 	bl	1866a0 <sub_FF83222C>
  188fdc:	e595101c 	ldr	r1, [r5, #28]
  188fe0:	ebfff5ad 	bl	18669c <sub_FF8300F8>
  188fe4:	e5951014 	ldr	r1, [r5, #20]
  188fe8:	e3510000 	cmp	r1, #0
  188fec:	15940010 	ldrne	r0, [r4, #16]
  188ff0:	112fff31 	blxne	r1
  188ff4:	eaffff8b 	b	188e28 <loc_FFAB8CFC>

00188ff8 <loc_FFAB8EAC>:
  188ff8:	eb000076 	bl	1891d8 <sub_FFAB9100_my>
  188ffc:	eaffff89 	b	188e28 <loc_FFAB8CFC>

00189000 <loc_FFAB8EB4>:
  189000:	eb0000be 	bl	189300 <sub_FFAB8B5C_my>
  189004:	eaffff87 	b	188e28 <loc_FFAB8CFC>

00189008 <sub_FFAB89A4_my>:
  189008:	e92d43f0 	push	{r4, r5, r6, r7, r8, r9, lr}
  18900c:	e1a04000 	mov	r4, r0
  189010:	ebffff1f 	bl	188c94 <filewrite_main_hook>
  189014:	e1a00004 	mov	r0, r4
  189018:	e590004c 	ldr	r0, [r0, #76]	; 0x4c
  18901c:	e24dd03c 	sub	sp, sp, #60	; 0x3c
  189020:	e3100001 	tst	r0, #1
  189024:	0a00005f 	beq	1891a8 <loc_C>
  189028:	e59f7290 	ldr	r7, [pc, #656]	; 1892c0 <loc_FFAB91E0+0x8>
  18902c:	e5970018 	ldr	r0, [r7, #24]
  189030:	e3500000 	cmp	r0, #0
  189034:	112fff30 	blxne	r0
  189038:	e2840058 	add	r0, r4, #88	; 0x58
  18903c:	ebfff597 	bl	1866a0 <sub_FF83222C>
  189040:	e3a01000 	mov	r1, #0
  189044:	ebfff593 	bl	186698 <sub_FF82FFB8>
  189048:	e3a01000 	mov	r1, #0
  18904c:	e3a00047 	mov	r0, #71	; 0x47
  189050:	ebfff5ce 	bl	186790 <sub_FF8B0664>
  189054:	e594000c 	ldr	r0, [r4, #12]
  189058:	ebfff58b 	bl	18668c <sub_FF82F038>
  18905c:	e594004c 	ldr	r0, [r4, #76]	; 0x4c
  189060:	e59f5270 	ldr	r5, [pc, #624]	; 1892d8 <loc_FFAB91E0+0x20>
  189064:	e3100010 	tst	r0, #16
  189068:	13a05009 	movne	r5, #9
  18906c:	1a000001 	bne	189078 <loc_FFAB8A0C>
  189070:	e3100040 	tst	r0, #64	; 0x40
  189074:	13a05001 	movne	r5, #1

00189078 <loc_FFAB8A0C>:
  189078:	e3100020 	tst	r0, #32
  18907c:	1a000002 	bne	18908c <loc_FFAB8A20>
  189080:	e5940054 	ldr	r0, [r4, #84]	; 0x54
  189084:	e3500001 	cmp	r0, #1
  189088:	1a000000 	bne	189090 <loc_FFAB8A24>

0018908c <loc_FFAB8A20>:
  18908c:	e3855902 	orr	r5, r5, #32768	; 0x8000

00189090 <loc_FFAB8A24>:
  189090:	e59f9244 	ldr	r9, [pc, #580]	; 1892dc <loc_FFAB91E0+0x24>
  189094:	e2848058 	add	r8, r4, #88	; 0x58
  189098:	e594600c 	ldr	r6, [r4, #12]
  18909c:	e1a02009 	mov	r2, r9
  1890a0:	e1a01005 	mov	r1, r5
  1890a4:	e1a00008 	mov	r0, r8
  1890a8:	ebffff28 	bl	188d50 <fwt_open>
  1890ac:	e3700001 	cmn	r0, #1
  1890b0:	1a000016 	bne	189110 <loc_FFAB8AA4>
  1890b4:	e1a00008 	mov	r0, r8
  1890b8:	ebfff55b 	bl	18662c <sub_FF8281A4>
  1890bc:	e3a0200f 	mov	r2, #15
  1890c0:	e1a01008 	mov	r1, r8
  1890c4:	e28d0004 	add	r0, sp, #4
  1890c8:	ebfff546 	bl	1865e8 <sub_006BA828>
  1890cc:	e3a00000 	mov	r0, #0
  1890d0:	e59f1208 	ldr	r1, [pc, #520]	; 1892e0 <loc_FFAB91E0+0x28>
  1890d4:	e5cd0013 	strb	r0, [sp, #19]
  1890d8:	e58d1024 	str	r1, [sp, #36]	; 0x24
  1890dc:	e3a01010 	mov	r1, #16
  1890e0:	e58d002c 	str	r0, [sp, #44]	; 0x2c
  1890e4:	e58d1028 	str	r1, [sp, #40]	; 0x28
  1890e8:	e28d1024 	add	r1, sp, #36	; 0x24
  1890ec:	e28d0004 	add	r0, sp, #4
  1890f0:	e58d6030 	str	r6, [sp, #48]	; 0x30
  1890f4:	e58d6034 	str	r6, [sp, #52]	; 0x34
  1890f8:	e58d6038 	str	r6, [sp, #56]	; 0x38
  1890fc:	ebfff564 	bl	186694 <sub_FF82F91C>
  189100:	e1a02009 	mov	r2, r9
  189104:	e1a01005 	mov	r1, r5
  189108:	e1a00008 	mov	r0, r8
  18910c:	ebfff701 	bl	186d18 <_Open>

00189110 <loc_FFAB8AA4>:
  189110:	e3700001 	cmn	r0, #1
  189114:	e1a05000 	mov	r5, r0
  189118:	e5870004 	str	r0, [r7, #4]
  18911c:	1a00000d 	bne	189158 <loc_FFAB8AEC>
  189120:	e3a01000 	mov	r1, #0
  189124:	e3a00048 	mov	r0, #72	; 0x48
  189128:	ebfff598 	bl	186790 <sub_FF8B0664>
  18912c:	e2840058 	add	r0, r4, #88	; 0x58
  189130:	ebfff55a 	bl	1866a0 <sub_FF83222C>
  189134:	e597101c 	ldr	r1, [r7, #28]
  189138:	ebfff557 	bl	18669c <sub_FF8300F8>
  18913c:	e5971014 	ldr	r1, [r7, #20]
  189140:	e3510000 	cmp	r1, #0
  189144:	0a000021 	beq	1891d0 <loc_FFAB8B54>
  189148:	e28dd03c 	add	sp, sp, #60	; 0x3c
  18914c:	e8bd43f0 	pop	{r4, r5, r6, r7, r8, r9, lr}
  189150:	e59f018c 	ldr	r0, [pc, #396]	; 1892e4 <loc_FFAB91E0+0x2c>
  189154:	e12fff11 	bx	r1

00189158 <loc_FFAB8AEC>:
  189158:	e59f016c 	ldr	r0, [pc, #364]	; 1892cc <loc_FFAB91E0+0x14>
  18915c:	e3a02020 	mov	r2, #32
  189160:	e2841058 	add	r1, r4, #88	; 0x58
  189164:	ebfff520 	bl	1865ec <sub_006BAA10>
  189168:	e59f3178 	ldr	r3, [pc, #376]	; 1892e8 <loc_FFAB91E0+0x30>
  18916c:	e5933000 	ldr	r3, [r3]
  189170:	e3530000 	cmp	r3, #0
  189174:	1a00000b 	bne	1891a8 <loc_C>
  189178:	e594004c 	ldr	r0, [r4, #76]	; 0x4c
  18917c:	e3100080 	tst	r0, #128	; 0x80
  189180:	0a000008 	beq	1891a8 <loc_C>
  189184:	e5941008 	ldr	r1, [r4, #8]
  189188:	e1a00005 	mov	r0, r5
  18918c:	ebfff525 	bl	186628 <sub_FF827E74>
  189190:	e3500000 	cmp	r0, #0
  189194:	059f0150 	ldreq	r0, [pc, #336]	; 1892ec <loc_FFAB91E0+0x34>
  189198:	01a01004 	moveq	r1, r4
  18919c:	05840010 	streq	r0, [r4, #16]
  1891a0:	03a00007 	moveq	r0, #7
  1891a4:	0a000008 	beq	1891cc <loc_FFAB8B50>

001891a8 <loc_C>:
  1891a8:	e594004c 	ldr	r0, [r4, #76]	; 0x4c
  1891ac:	e3100040 	tst	r0, #64	; 0x40
  1891b0:	05940004 	ldreq	r0, [r4, #4]
  1891b4:	03500000 	cmpeq	r0, #0
  1891b8:	11a01004 	movne	r1, r4
  1891bc:	13a00009 	movne	r0, #9
  1891c0:	1bfff5cd 	blne	1868fc <sub_FFAB88E4>
  1891c4:	e1a01004 	mov	r1, r4
  1891c8:	e3a00000 	mov	r0, #0

001891cc <loc_FFAB8B50>:
  1891cc:	ebfff5ca 	bl	1868fc <sub_FFAB88E4>

001891d0 <loc_FFAB8B54>:
  1891d0:	e28dd03c 	add	sp, sp, #60	; 0x3c
  1891d4:	e8bd83f0 	pop	{r4, r5, r6, r7, r8, r9, pc}

001891d8 <sub_FFAB9100_my>:
  1891d8:	e92d47f0 	push	{r4, r5, r6, r7, r8, r9, sl, lr}
  1891dc:	e1a05000 	mov	r5, r0
  1891e0:	e5900000 	ldr	r0, [r0]
  1891e4:	e3500006 	cmp	r0, #6
  1891e8:	8a000005 	bhi	189204 <loc_FFAB912C>
  1891ec:	e0850180 	add	r0, r5, r0, lsl #3
  1891f0:	e5b08014 	ldr	r8, [r0, #20]!
  1891f4:	e5907004 	ldr	r7, [r0, #4]
  1891f8:	e3570000 	cmp	r7, #0
  1891fc:	1a000007 	bne	189220 <loc_FFAB9148>
  189200:	ea000003 	b	189214 <loc_FFAB913C>

00189204 <loc_FFAB912C>:
  189204:	e59f20e4 	ldr	r2, [pc, #228]	; 1892f0 <loc_FFAB91E0+0x38>
  189208:	e59f10b8 	ldr	r1, [pc, #184]	; 1892c8 <loc_FFAB91E0+0x10>
  18920c:	e3a00000 	mov	r0, #0
  189210:	ebfff695 	bl	186c6c <_DebugAssert>

00189214 <loc_FFAB913C>:
  189214:	e1a01005 	mov	r1, r5
  189218:	e3a00007 	mov	r0, #7
  18921c:	ea000025 	b	1892b8 <loc_FFAB91E0>

00189220 <loc_FFAB9148>:
  189220:	e59f9098 	ldr	r9, [pc, #152]	; 1892c0 <loc_FFAB91E0+0x8>
  189224:	e1a04007 	mov	r4, r7

00189228 <loc_FFAB9150>:
  189228:	e5950004 	ldr	r0, [r5, #4]
  18922c:	e3540401 	cmp	r4, #16777216	; 0x1000000
  189230:	91a06004 	movls	r6, r4
  189234:	83a06401 	movhi	r6, #16777216	; 0x1000000
  189238:	e3c014ff 	bic	r1, r0, #-16777216	; 0xff000000
  18923c:	e3510000 	cmp	r1, #0
  189240:	13c004ff 	bicne	r0, r0, #-16777216	; 0xff000000
  189244:	12600401 	rsbne	r0, r0, #16777216	; 0x1000000
  189248:	11560000 	cmpne	r6, r0
  18924c:	81a06000 	movhi	r6, r0
  189250:	e5990004 	ldr	r0, [r9, #4]
  189254:	e1a02006 	mov	r2, r6
  189258:	e1a01008 	mov	r1, r8
  18925c:	ebfffec6 	bl	188d7c <fwt_write>
  189260:	e5951004 	ldr	r1, [r5, #4]
  189264:	e1560000 	cmp	r6, r0
  189268:	e0811000 	add	r1, r1, r0
  18926c:	e5851004 	str	r1, [r5, #4]
  189270:	0a000004 	beq	189288 <loc_FFAB91B0>
  189274:	e3700001 	cmn	r0, #1
  189278:	159f0074 	ldrne	r0, [pc, #116]	; 1892f4 <loc_FFAB91E0+0x3c>
  18927c:	059f0074 	ldreq	r0, [pc, #116]	; 1892f8 <loc_FFAB91E0+0x40>
  189280:	e5850010 	str	r0, [r5, #16]
  189284:	eaffffe2 	b	189214 <loc_FFAB913C>

00189288 <loc_FFAB91B0>:
  189288:	e0444000 	sub	r4, r4, r0
  18928c:	e1540007 	cmp	r4, r7
  189290:	259f2064 	ldrcs	r2, [pc, #100]	; 1892fc <loc_FFAB91E0+0x44>
  189294:	e0888000 	add	r8, r8, r0
  189298:	259f1028 	ldrcs	r1, [pc, #40]	; 1892c8 <loc_FFAB91E0+0x10>
  18929c:	23a00000 	movcs	r0, #0
  1892a0:	2bfff671 	blcs	186c6c <_DebugAssert>
  1892a4:	e3540000 	cmp	r4, #0
  1892a8:	1affffde 	bne	189228 <loc_FFAB9150>
  1892ac:	e5950000 	ldr	r0, [r5]
  1892b0:	e1a01005 	mov	r1, r5
  1892b4:	e2800001 	add	r0, r0, #1

001892b8 <loc_FFAB91E0>:
  1892b8:	e8bd47f0 	pop	{r4, r5, r6, r7, r8, r9, sl, lr}
  1892bc:	eafff58e 	b	1868fc <sub_FFAB88E4>
  1892c0:	0000b584 	.word	0x0000b584
  1892c4:	00000409 	.word	0x00000409
  1892c8:	ffab8ee4 	.word	0xffab8ee4
  1892cc:	000fc03c 	.word	0x000fc03c
  1892d0:	001a82fc 	.word	0x001a82fc
  1892d4:	09200013 	.word	0x09200013
  1892d8:	00000301 	.word	0x00000301
  1892dc:	000001b6 	.word	0x000001b6
  1892e0:	000041ff 	.word	0x000041ff
  1892e4:	09200001 	.word	0x09200001
  1892e8:	001a8304 	.word	0x001a8304
  1892ec:	09200017 	.word	0x09200017
  1892f0:	0000035e 	.word	0x0000035e
  1892f4:	09200015 	.word	0x09200015
  1892f8:	09200005 	.word	0x09200005
  1892fc:	00000389 	.word	0x00000389

00189300 <sub_FFAB8B5C_my>:
  189300:	e92d4070 	push	{r4, r5, r6, lr}
  189304:	e1a04000 	mov	r4, r0
  189308:	e590004c 	ldr	r0, [r0, #76]	; 0x4c
  18930c:	e59f5044 	ldr	r5, [pc, #68]	; 189358 <loc_D+0x8>
  189310:	e3100002 	tst	r0, #2
  189314:	e24dd038 	sub	sp, sp, #56	; 0x38
  189318:	0afff57a 	beq	186908 <sub_FFAB8CD0>
  18931c:	e5950004 	ldr	r0, [r5, #4]
  189320:	e3700001 	cmn	r0, #1
  189324:	0afff576 	beq	186904 <sub_FFAB8BB0>
  189328:	e5941054 	ldr	r1, [r4, #84]	; 0x54
  18932c:	e59f6028 	ldr	r6, [pc, #40]	; 18935c <loc_D+0xc>
  189330:	e3510001 	cmp	r1, #1
  189334:	1a000005 	bne	189350 <loc_D>
  189338:	e59f3020 	ldr	r3, [pc, #32]	; 189360 <loc_D+0x10>
  18933c:	e5933000 	ldr	r3, [r3]
  189340:	e3530000 	cmp	r3, #0
  189344:	1a000001 	bne	189350 <loc_D>
  189348:	ebfff4b5 	bl	186624 <sub_FF827BC8>
  18934c:	eafff56b 	b	186900 <sub_FFAB8BA0>

00189350 <loc_D>:
  189350:	ebfffea4 	bl	188de8 <fwt_close>
  189354:	e59ff008 	ldr	pc, [pc, #8]	; 189364 <loc_D+0x14>
  189358:	0000b584 	.word	0x0000b584
  18935c:	09200003 	.word	0x09200003
  189360:	001a8304 	.word	0x001a8304
  189364:	ffab8ba0 	.word	0xffab8ba0

00189368 <schedule_memdump>:
  189368:	b500      	push	{lr}
  18936a:	f012 ff59 	bl	19c220 <__get_tick_count_from_thumb>
  18936e:	4b04      	ldr	r3, [pc, #16]	; (189380 <schedule_memdump+0x18>)
  189370:	6819      	ldr	r1, [r3, #0]
  189372:	22fa      	movs	r2, #250	; 0xfa
  189374:	0092      	lsls	r2, r2, #2
  189376:	434a      	muls	r2, r1
  189378:	1880      	adds	r0, r0, r2
  18937a:	6058      	str	r0, [r3, #4]
  18937c:	bc01      	pop	{r0}
  18937e:	4700      	bx	r0
  189380:	001a8308 	.word	0x001a8308

00189384 <dump_memory>:
  189384:	b5f1      	push	{r0, r4, r5, r6, r7, lr}
  189386:	4b33      	ldr	r3, [pc, #204]	; (189454 <dump_memory+0xd0>)
  189388:	4d33      	ldr	r5, [pc, #204]	; (189458 <dump_memory+0xd4>)
  18938a:	5959      	ldr	r1, [r3, r5]
  18938c:	4a33      	ldr	r2, [pc, #204]	; (18945c <dump_memory+0xd8>)
  18938e:	2900      	cmp	r1, #0
  189390:	d102      	bne.n	189398 <dump_memory+0x14>
  189392:	6dd1      	ldr	r1, [r2, #92]	; 0x5c
  189394:	3101      	adds	r1, #1
  189396:	5159      	str	r1, [r3, r5]
  189398:	6dd1      	ldr	r1, [r2, #92]	; 0x5c
  18939a:	4f31      	ldr	r7, [pc, #196]	; (189460 <dump_memory+0xdc>)
  18939c:	59da      	ldr	r2, [r3, r7]
  18939e:	428a      	cmp	r2, r1
  1893a0:	d901      	bls.n	1893a6 <dump_memory+0x22>
  1893a2:	2200      	movs	r2, #0
  1893a4:	51da      	str	r2, [r3, r7]
  1893a6:	4b2b      	ldr	r3, [pc, #172]	; (189454 <dump_memory+0xd0>)
  1893a8:	59da      	ldr	r2, [r3, r7]
  1893aa:	3101      	adds	r1, #1
  1893ac:	5958      	ldr	r0, [r3, r5]
  1893ae:	1810      	adds	r0, r2, r0
  1893b0:	4288      	cmp	r0, r1
  1893b2:	d902      	bls.n	1893ba <dump_memory+0x36>
  1893b4:	1a8a      	subs	r2, r1, r2
  1893b6:	4828      	ldr	r0, [pc, #160]	; (189458 <dump_memory+0xd4>)
  1893b8:	501a      	str	r2, [r3, r0]
  1893ba:	2001      	movs	r0, #1
  1893bc:	f012 fd48 	bl	19be50 <__debug_led_from_thumb>
  1893c0:	f007 fe38 	bl	191034 <is_video_recording>
  1893c4:	2800      	cmp	r0, #0
  1893c6:	d13f      	bne.n	189448 <dump_memory+0xc4>
  1893c8:	4826      	ldr	r0, [pc, #152]	; (189464 <dump_memory+0xe0>)
  1893ca:	f012 fe2d 	bl	19c028 <__mkdir_from_thumb>
  1893ce:	4826      	ldr	r0, [pc, #152]	; (189468 <dump_memory+0xe4>)
  1893d0:	f012 fe2a 	bl	19c028 <__mkdir_from_thumb>
  1893d4:	4c25      	ldr	r4, [pc, #148]	; (18946c <dump_memory+0xe8>)
  1893d6:	4e26      	ldr	r6, [pc, #152]	; (189470 <dump_memory+0xec>)
  1893d8:	3608      	adds	r6, #8
  1893da:	6822      	ldr	r2, [r4, #0]
  1893dc:	1c53      	adds	r3, r2, #1
  1893de:	6023      	str	r3, [r4, #0]
  1893e0:	1c30      	adds	r0, r6, #0
  1893e2:	4924      	ldr	r1, [pc, #144]	; (189474 <dump_memory+0xf0>)
  1893e4:	f012 fd5c 	bl	19bea0 <__sprintf_from_thumb>
  1893e8:	1c30      	adds	r0, r6, #0
  1893ea:	2100      	movs	r1, #0
  1893ec:	f012 ff20 	bl	19c230 <__stat_from_thumb>
  1893f0:	2800      	cmp	r0, #0
  1893f2:	d007      	beq.n	189404 <dump_memory+0x80>
  1893f4:	1c30      	adds	r0, r6, #0
  1893f6:	4920      	ldr	r1, [pc, #128]	; (189478 <dump_memory+0xf4>)
  1893f8:	4a20      	ldr	r2, [pc, #128]	; (18947c <dump_memory+0xf8>)
  1893fa:	f012 ff3d 	bl	19c278 <__open_from_thumb>
  1893fe:	1e04      	subs	r4, r0, #0
  189400:	da05      	bge.n	18940e <dump_memory+0x8a>
  189402:	e01f      	b.n	189444 <dump_memory+0xc0>
  189404:	6822      	ldr	r2, [r4, #0]
  189406:	4b1e      	ldr	r3, [pc, #120]	; (189480 <dump_memory+0xfc>)
  189408:	429a      	cmp	r2, r3
  18940a:	dde6      	ble.n	1893da <dump_memory+0x56>
  18940c:	e01a      	b.n	189444 <dump_memory+0xc0>
  18940e:	4e11      	ldr	r6, [pc, #68]	; (189454 <dump_memory+0xd0>)
  189410:	59f1      	ldr	r1, [r6, r7]
  189412:	2900      	cmp	r1, #0
  189414:	d10f      	bne.n	189436 <dump_memory+0xb2>
  189416:	2380      	movs	r3, #128	; 0x80
  189418:	05db      	lsls	r3, r3, #23
  18941a:	681b      	ldr	r3, [r3, #0]
  18941c:	9300      	str	r3, [sp, #0]
  18941e:	1c20      	adds	r0, r4, #0
  189420:	4669      	mov	r1, sp
  189422:	2204      	movs	r2, #4
  189424:	f012 fe10 	bl	19c048 <__write_from_thumb>
  189428:	5972      	ldr	r2, [r6, r5]
  18942a:	2a04      	cmp	r2, #4
  18942c:	dd07      	ble.n	18943e <dump_memory+0xba>
  18942e:	3a04      	subs	r2, #4
  189430:	1c20      	adds	r0, r4, #0
  189432:	2104      	movs	r1, #4
  189434:	e001      	b.n	18943a <dump_memory+0xb6>
  189436:	5972      	ldr	r2, [r6, r5]
  189438:	1c20      	adds	r0, r4, #0
  18943a:	f012 fe05 	bl	19c048 <__write_from_thumb>
  18943e:	1c20      	adds	r0, r4, #0
  189440:	f012 fee2 	bl	19c208 <__close_from_thumb>
  189444:	f012 fe40 	bl	19c0c8 <__vid_bitmap_refresh_from_thumb>
  189448:	2000      	movs	r0, #0
  18944a:	f012 fd01 	bl	19be50 <__debug_led_from_thumb>
  18944e:	bcf1      	pop	{r0, r4, r5, r6, r7}
  189450:	bc01      	pop	{r0}
  189452:	4700      	bx	r0
  189454:	001a3440 	.word	0x001a3440
  189458:	0000084c 	.word	0x0000084c
  18945c:	001a4e14 	.word	0x001a4e14
  189460:	00000848 	.word	0x00000848
  189464:	0019c404 	.word	0x0019c404
  189468:	0019c40b 	.word	0x0019c40b
  18946c:	001a17e8 	.word	0x001a17e8
  189470:	001a8308 	.word	0x001a8308
  189474:	0019c41b 	.word	0x0019c41b
  189478:	00000101 	.word	0x00000101
  18947c:	000001ff 	.word	0x000001ff
  189480:	0000270e 	.word	0x0000270e

00189484 <core_get_free_memory>:
  189484:	b500      	push	{lr}
  189486:	b089      	sub	sp, #36	; 0x24
  189488:	4668      	mov	r0, sp
  18948a:	f001 f905 	bl	18a698 <GetCombinedMemInfo>
  18948e:	9807      	ldr	r0, [sp, #28]
  189490:	b009      	add	sp, #36	; 0x24
  189492:	bc02      	pop	{r1}
  189494:	4708      	bx	r1

00189496 <core_rawdata_available>:
  189496:	2201      	movs	r2, #1
  189498:	4b01      	ldr	r3, [pc, #4]	; (1894a0 <core_rawdata_available+0xa>)
  18949a:	629a      	str	r2, [r3, #40]	; 0x28
  18949c:	4770      	bx	lr
  18949e:	46c0      	nop			; (mov r8, r8)
  1894a0:	001a8308 	.word	0x001a8308

001894a4 <core_spytask_can_start>:
  1894a4:	2201      	movs	r2, #1
  1894a6:	4b01      	ldr	r3, [pc, #4]	; (1894ac <core_spytask_can_start+0x8>)
  1894a8:	62da      	str	r2, [r3, #44]	; 0x2c
  1894aa:	4770      	bx	lr
  1894ac:	001a8308 	.word	0x001a8308

001894b0 <script_autostart>:
  1894b0:	b500      	push	{lr}
  1894b2:	f002 fe9f 	bl	18c1f4 <enter_alt>
  1894b6:	f002 fe09 	bl	18c0cc <gui_activate_alt_mode>
  1894ba:	2001      	movs	r0, #1
  1894bc:	f00d fcac 	bl	196e18 <script_start_gui>
  1894c0:	bc01      	pop	{r0}
  1894c2:	4700      	bx	r0

001894c4 <core_spytask>:
  1894c4:	b5f0      	push	{r4, r5, r6, r7, lr}
  1894c6:	b085      	sub	sp, #20
  1894c8:	f007 fffe 	bl	1914c8 <camera_info_init>
  1894cc:	4d8a      	ldr	r5, [pc, #552]	; (1896f8 <core_spytask+0x234>)
  1894ce:	2300      	movs	r3, #0
  1894d0:	62eb      	str	r3, [r5, #44]	; 0x2c
  1894d2:	f001 f8cd 	bl	18a670 <aram_malloc_init>
  1894d6:	f001 f8b9 	bl	18a64c <exmem_malloc_init>
  1894da:	f00c fcc9 	bl	195e70 <init_chdk_ptp_task>
  1894de:	4c87      	ldr	r4, [pc, #540]	; (1896fc <core_spytask+0x238>)
  1894e0:	e002      	b.n	1894e8 <core_spytask+0x24>
  1894e2:	200a      	movs	r0, #10
  1894e4:	f012 fefc 	bl	19c2e0 <__msleep_from_thumb>
  1894e8:	3c01      	subs	r4, #1
  1894ea:	2c00      	cmp	r4, #0
  1894ec:	d002      	beq.n	1894f4 <core_spytask+0x30>
  1894ee:	6aeb      	ldr	r3, [r5, #44]	; 0x2c
  1894f0:	2b00      	cmp	r3, #0
  1894f2:	d0f6      	beq.n	1894e2 <core_spytask+0x1e>
  1894f4:	2001      	movs	r0, #1
  1894f6:	f012 fcab 	bl	19be50 <__debug_led_from_thumb>
  1894fa:	2032      	movs	r0, #50	; 0x32
  1894fc:	f012 fef0 	bl	19c2e0 <__msleep_from_thumb>
  189500:	2000      	movs	r0, #0
  189502:	f012 fca5 	bl	19be50 <__debug_led_from_thumb>
  189506:	f003 fba9 	bl	18cc5c <conf_restore>
  18950a:	f002 fc77 	bl	18bdfc <gui_init>
  18950e:	487c      	ldr	r0, [pc, #496]	; (189700 <core_spytask+0x23c>)
  189510:	f012 fd8a 	bl	19c028 <__mkdir_from_thumb>
  189514:	487b      	ldr	r0, [pc, #492]	; (189704 <core_spytask+0x240>)
  189516:	f012 fd87 	bl	19c028 <__mkdir_from_thumb>
  18951a:	487b      	ldr	r0, [pc, #492]	; (189708 <core_spytask+0x244>)
  18951c:	f012 fd84 	bl	19c028 <__mkdir_from_thumb>
  189520:	487a      	ldr	r0, [pc, #488]	; (18970c <core_spytask+0x248>)
  189522:	f012 fd81 	bl	19c028 <__mkdir_from_thumb>
  189526:	487a      	ldr	r0, [pc, #488]	; (189710 <core_spytask+0x24c>)
  189528:	f012 fd7e 	bl	19c028 <__mkdir_from_thumb>
  18952c:	4879      	ldr	r0, [pc, #484]	; (189714 <core_spytask+0x250>)
  18952e:	f012 fd7b 	bl	19c028 <__mkdir_from_thumb>
  189532:	4879      	ldr	r0, [pc, #484]	; (189718 <core_spytask+0x254>)
  189534:	f012 fd78 	bl	19c028 <__mkdir_from_thumb>
  189538:	4878      	ldr	r0, [pc, #480]	; (18971c <core_spytask+0x258>)
  18953a:	f012 fd75 	bl	19c028 <__mkdir_from_thumb>
  18953e:	4878      	ldr	r0, [pc, #480]	; (189720 <core_spytask+0x25c>)
  189540:	f012 fd72 	bl	19c028 <__mkdir_from_thumb>
  189544:	4877      	ldr	r0, [pc, #476]	; (189724 <core_spytask+0x260>)
  189546:	f012 fd6f 	bl	19c028 <__mkdir_from_thumb>
  18954a:	4877      	ldr	r0, [pc, #476]	; (189728 <core_spytask+0x264>)
  18954c:	f012 fd6c 	bl	19c028 <__mkdir_from_thumb>
  189550:	4876      	ldr	r0, [pc, #472]	; (18972c <core_spytask+0x268>)
  189552:	f012 fd69 	bl	19c028 <__mkdir_from_thumb>
  189556:	4876      	ldr	r0, [pc, #472]	; (189730 <core_spytask+0x26c>)
  189558:	f012 fd66 	bl	19c028 <__mkdir_from_thumb>
  18955c:	4875      	ldr	r0, [pc, #468]	; (189734 <core_spytask+0x270>)
  18955e:	2100      	movs	r1, #0
  189560:	f012 fe66 	bl	19c230 <__stat_from_thumb>
  189564:	1e43      	subs	r3, r0, #1
  189566:	4198      	sbcs	r0, r3
  189568:	4b73      	ldr	r3, [pc, #460]	; (189738 <core_spytask+0x274>)
  18956a:	6018      	str	r0, [r3, #0]
  18956c:	2000      	movs	r0, #0
  18956e:	f012 fd33 	bl	19bfd8 <__time_from_thumb>
  189572:	1c06      	adds	r6, r0, #0
  189574:	4d71      	ldr	r5, [pc, #452]	; (18973c <core_spytask+0x278>)
  189576:	e000      	b.n	18957a <core_spytask+0xb6>
  189578:	1c26      	adds	r6, r4, #0
  18957a:	f012 fe51 	bl	19c220 <__get_tick_count_from_thumb>
  18957e:	67e8      	str	r0, [r5, #124]	; 0x7c
  189580:	2000      	movs	r0, #0
  189582:	f012 fd29 	bl	19bfd8 <__time_from_thumb>
  189586:	1c04      	adds	r4, r0, #0
  189588:	200a      	movs	r0, #10
  18958a:	f012 fea9 	bl	19c2e0 <__msleep_from_thumb>
  18958e:	42a6      	cmp	r6, r4
  189590:	d1f2      	bne.n	189578 <core_spytask+0xb4>
  189592:	6fe8      	ldr	r0, [r5, #124]	; 0x7c
  189594:	21fa      	movs	r1, #250	; 0xfa
  189596:	0089      	lsls	r1, r1, #2
  189598:	f012 fd06 	bl	19bfa8 <____modsi3_from_thumb>
  18959c:	67e8      	str	r0, [r5, #124]	; 0x7c
  18959e:	4c68      	ldr	r4, [pc, #416]	; (189740 <core_spytask+0x27c>)
  1895a0:	4b68      	ldr	r3, [pc, #416]	; (189744 <core_spytask+0x280>)
  1895a2:	58e2      	ldr	r2, [r4, r3]
  1895a4:	2a01      	cmp	r2, #1
  1895a6:	d005      	beq.n	1895b4 <core_spytask+0xf0>
  1895a8:	2a02      	cmp	r2, #2
  1895aa:	d105      	bne.n	1895b8 <core_spytask+0xf4>
  1895ac:	2200      	movs	r2, #0
  1895ae:	50e2      	str	r2, [r4, r3]
  1895b0:	f003 fa40 	bl	18ca34 <conf_save>
  1895b4:	f7ff ff7c 	bl	1894b0 <script_autostart>
  1895b8:	f006 feaf 	bl	19031a <shooting_init>
  1895bc:	2205      	movs	r2, #5
  1895be:	4b4e      	ldr	r3, [pc, #312]	; (1896f8 <core_spytask+0x234>)
  1895c0:	601a      	str	r2, [r3, #0]
  1895c2:	2280      	movs	r2, #128	; 0x80
  1895c4:	0412      	lsls	r2, r2, #16
  1895c6:	4b60      	ldr	r3, [pc, #384]	; (189748 <core_spytask+0x284>)
  1895c8:	50e2      	str	r2, [r4, r3]
  1895ca:	2200      	movs	r2, #0
  1895cc:	4b5f      	ldr	r3, [pc, #380]	; (18974c <core_spytask+0x288>)
  1895ce:	50e2      	str	r2, [r4, r3]
  1895d0:	f7ff feca 	bl	189368 <schedule_memdump>
  1895d4:	2601      	movs	r6, #1
  1895d6:	4f59      	ldr	r7, [pc, #356]	; (18973c <core_spytask+0x278>)
  1895d8:	1c3d      	adds	r5, r7, #0
  1895da:	35f8      	adds	r5, #248	; 0xf8
  1895dc:	f007 fdc9 	bl	191172 <mode_get>
  1895e0:	4c45      	ldr	r4, [pc, #276]	; (1896f8 <core_spytask+0x234>)
  1895e2:	6863      	ldr	r3, [r4, #4]
  1895e4:	2b00      	cmp	r3, #0
  1895e6:	d008      	beq.n	1895fa <core_spytask+0x136>
  1895e8:	f012 fe1a 	bl	19c220 <__get_tick_count_from_thumb>
  1895ec:	6863      	ldr	r3, [r4, #4]
  1895ee:	4298      	cmp	r0, r3
  1895f0:	d303      	bcc.n	1895fa <core_spytask+0x136>
  1895f2:	2300      	movs	r3, #0
  1895f4:	6063      	str	r3, [r4, #4]
  1895f6:	f7ff fec5 	bl	189384 <dump_memory>
  1895fa:	f002 fd67 	bl	18c0cc <gui_activate_alt_mode>
  1895fe:	6aa3      	ldr	r3, [r4, #40]	; 0x28
  189600:	2b00      	cmp	r3, #0
  189602:	d006      	beq.n	189612 <core_spytask+0x14e>
  189604:	f005 fe78 	bl	18f2f8 <raw_process>
  189608:	f012 fd3a 	bl	19c080 <__hook_raw_save_complete_from_thumb>
  18960c:	2300      	movs	r3, #0
  18960e:	62a3      	str	r3, [r4, #40]	; 0x28
  189610:	e7e4      	b.n	1895dc <core_spytask+0x118>
  189612:	682b      	ldr	r3, [r5, #0]
  189614:	2b02      	cmp	r3, #2
  189616:	d103      	bne.n	189620 <core_spytask+0x15c>
  189618:	4b4d      	ldr	r3, [pc, #308]	; (189750 <core_spytask+0x28c>)
  18961a:	681b      	ldr	r3, [r3, #0]
  18961c:	2b00      	cmp	r3, #0
  18961e:	d006      	beq.n	18962e <core_spytask+0x16a>
  189620:	2303      	movs	r3, #3
  189622:	4033      	ands	r3, r6
  189624:	3601      	adds	r6, #1
  189626:	2b00      	cmp	r3, #0
  189628:	d101      	bne.n	18962e <core_spytask+0x16a>
  18962a:	f002 fcf5 	bl	18c018 <gui_redraw>
  18962e:	1c3b      	adds	r3, r7, #0
  189630:	33f8      	adds	r3, #248	; 0xf8
  189632:	681b      	ldr	r3, [r3, #0]
  189634:	2b02      	cmp	r3, #2
  189636:	d023      	beq.n	189680 <core_spytask+0x1bc>
  189638:	4c41      	ldr	r4, [pc, #260]	; (189740 <core_spytask+0x27c>)
  18963a:	6f23      	ldr	r3, [r4, #112]	; 0x70
  18963c:	2b00      	cmp	r3, #0
  18963e:	d004      	beq.n	18964a <core_spytask+0x186>
  189640:	4b44      	ldr	r3, [pc, #272]	; (189754 <core_spytask+0x290>)
  189642:	681b      	ldr	r3, [r3, #0]
  189644:	695b      	ldr	r3, [r3, #20]
  189646:	f000 f892 	bl	18976e <ftell+0xe>
  18964a:	4b3c      	ldr	r3, [pc, #240]	; (18973c <core_spytask+0x278>)
  18964c:	33fc      	adds	r3, #252	; 0xfc
  18964e:	68da      	ldr	r2, [r3, #12]
  189650:	2a00      	cmp	r2, #0
  189652:	d102      	bne.n	18965a <core_spytask+0x196>
  189654:	691b      	ldr	r3, [r3, #16]
  189656:	2b00      	cmp	r3, #0
  189658:	d012      	beq.n	189680 <core_spytask+0x1bc>
  18965a:	23e7      	movs	r3, #231	; 0xe7
  18965c:	00db      	lsls	r3, r3, #3
  18965e:	58e3      	ldr	r3, [r4, r3]
  189660:	2b00      	cmp	r3, #0
  189662:	d00d      	beq.n	189680 <core_spytask+0x1bc>
  189664:	23e6      	movs	r3, #230	; 0xe6
  189666:	00db      	lsls	r3, r3, #3
  189668:	58e3      	ldr	r3, [r4, r3]
  18966a:	2b00      	cmp	r3, #0
  18966c:	d008      	beq.n	189680 <core_spytask+0x1bc>
  18966e:	4b22      	ldr	r3, [pc, #136]	; (1896f8 <core_spytask+0x234>)
  189670:	6b1b      	ldr	r3, [r3, #48]	; 0x30
  189672:	2b00      	cmp	r3, #0
  189674:	d004      	beq.n	189680 <core_spytask+0x1bc>
  189676:	4b38      	ldr	r3, [pc, #224]	; (189758 <core_spytask+0x294>)
  189678:	681b      	ldr	r3, [r3, #0]
  18967a:	695b      	ldr	r3, [r3, #20]
  18967c:	f000 f877 	bl	18976e <ftell+0xe>
  189680:	4b2e      	ldr	r3, [pc, #184]	; (18973c <core_spytask+0x278>)
  189682:	1c1c      	adds	r4, r3, #0
  189684:	34f8      	adds	r4, #248	; 0xf8
  189686:	6822      	ldr	r2, [r4, #0]
  189688:	2a02      	cmp	r2, #2
  18968a:	d105      	bne.n	189698 <core_spytask+0x1d4>
  18968c:	f006 f948 	bl	18f920 <shooting_in_progress>
  189690:	2800      	cmp	r0, #0
  189692:	d101      	bne.n	189698 <core_spytask+0x1d4>
  189694:	2303      	movs	r3, #3
  189696:	6023      	str	r3, [r4, #0]
  189698:	4b28      	ldr	r3, [pc, #160]	; (18973c <core_spytask+0x278>)
  18969a:	33fc      	adds	r3, #252	; 0xfc
  18969c:	6b5a      	ldr	r2, [r3, #52]	; 0x34
  18969e:	2a00      	cmp	r2, #0
  1896a0:	d020      	beq.n	1896e4 <core_spytask+0x220>
  1896a2:	6c1a      	ldr	r2, [r3, #64]	; 0x40
  1896a4:	9202      	str	r2, [sp, #8]
  1896a6:	6c5a      	ldr	r2, [r3, #68]	; 0x44
  1896a8:	9203      	str	r2, [sp, #12]
  1896aa:	6c9a      	ldr	r2, [r3, #72]	; 0x48
  1896ac:	9204      	str	r2, [sp, #16]
  1896ae:	6d19      	ldr	r1, [r3, #80]	; 0x50
  1896b0:	2900      	cmp	r1, #0
  1896b2:	d003      	beq.n	1896bc <core_spytask+0x1f8>
  1896b4:	6cd8      	ldr	r0, [r3, #76]	; 0x4c
  1896b6:	f012 fcff 	bl	19c0b8 <____udivsi3_from_thumb>
  1896ba:	1c01      	adds	r1, r0, #0
  1896bc:	4c0e      	ldr	r4, [pc, #56]	; (1896f8 <core_spytask+0x234>)
  1896be:	3434      	adds	r4, #52	; 0x34
  1896c0:	9b04      	ldr	r3, [sp, #16]
  1896c2:	9300      	str	r3, [sp, #0]
  1896c4:	9101      	str	r1, [sp, #4]
  1896c6:	1c20      	adds	r0, r4, #0
  1896c8:	4924      	ldr	r1, [pc, #144]	; (18975c <core_spytask+0x298>)
  1896ca:	9a02      	ldr	r2, [sp, #8]
  1896cc:	9b03      	ldr	r3, [sp, #12]
  1896ce:	f012 fbe7 	bl	19bea0 <__sprintf_from_thumb>
  1896d2:	23a1      	movs	r3, #161	; 0xa1
  1896d4:	009b      	lsls	r3, r3, #2
  1896d6:	4a1a      	ldr	r2, [pc, #104]	; (189740 <core_spytask+0x27c>)
  1896d8:	5ad3      	ldrh	r3, [r2, r3]
  1896da:	2001      	movs	r0, #1
  1896dc:	2100      	movs	r1, #0
  1896de:	1c22      	adds	r2, r4, #0
  1896e0:	f000 fd6e 	bl	18a1c0 <draw_txt_string>
  1896e4:	f00e fbb8 	bl	197e58 <module_tick_unloader>
  1896e8:	2014      	movs	r0, #20
  1896ea:	f012 fdf9 	bl	19c2e0 <__msleep_from_thumb>
  1896ee:	2201      	movs	r2, #1
  1896f0:	4b01      	ldr	r3, [pc, #4]	; (1896f8 <core_spytask+0x234>)
  1896f2:	631a      	str	r2, [r3, #48]	; 0x30
  1896f4:	e772      	b.n	1895dc <core_spytask+0x118>
  1896f6:	46c0      	nop			; (mov r8, r8)
  1896f8:	001a8308 	.word	0x001a8308
  1896fc:	00000191 	.word	0x00000191
  189700:	0019c438 	.word	0x0019c438
  189704:	0019c43f 	.word	0x0019c43f
  189708:	0019c44c 	.word	0x0019c44c
  18970c:	0019c45b 	.word	0x0019c45b
  189710:	0019c46a 	.word	0x0019c46a
  189714:	0019c476 	.word	0x0019c476
  189718:	0019c483 	.word	0x0019c483
  18971c:	0019c492 	.word	0x0019c492
  189720:	0019c4a5 	.word	0x0019c4a5
  189724:	0019c4b2 	.word	0x0019c4b2
  189728:	0019c4c0 	.word	0x0019c4c0
  18972c:	0019c4cc 	.word	0x0019c4cc
  189730:	0019c4d8 	.word	0x0019c4d8
  189734:	0019c4e4 	.word	0x0019c4e4
  189738:	001a9604 	.word	0x001a9604
  18973c:	001a4e14 	.word	0x001a4e14
  189740:	001a3440 	.word	0x001a3440
  189744:	0000068c 	.word	0x0000068c
  189748:	0000084c 	.word	0x0000084c
  18974c:	00000848 	.word	0x00000848
  189750:	000027e4 	.word	0x000027e4
  189754:	001a747c 	.word	0x001a747c
  189758:	001a74cc 	.word	0x001a74cc
  18975c:	0019c4ff 	.word	0x0019c4ff

00189760 <ftell>:
  189760:	2800      	cmp	r0, #0
  189762:	d001      	beq.n	189768 <ftell+0x8>
  189764:	68c0      	ldr	r0, [r0, #12]
  189766:	e001      	b.n	18976c <ftell+0xc>
  189768:	2001      	movs	r0, #1
  18976a:	4240      	negs	r0, r0
  18976c:	4770      	bx	lr
  18976e:	4718      	bx	r3

00189770 <draw_pixel_std>:
  189770:	4b03      	ldr	r3, [pc, #12]	; (189780 <draw_pixel_std+0x10>)
  189772:	681a      	ldr	r2, [r3, #0]
  189774:	0609      	lsls	r1, r1, #24
  189776:	0e09      	lsrs	r1, r1, #24
  189778:	685b      	ldr	r3, [r3, #4]
  18977a:	5419      	strb	r1, [r3, r0]
  18977c:	5411      	strb	r1, [r2, r0]
  18977e:	4770      	bx	lr
  189780:	001a8370 	.word	0x001a8370

00189784 <normalise>:
  189784:	b510      	push	{r4, lr}
  189786:	9c02      	ldr	r4, [sp, #8]
  189788:	4299      	cmp	r1, r3
  18978a:	dd02      	ble.n	189792 <normalise+0xe>
  18978c:	6081      	str	r1, [r0, #8]
  18978e:	6003      	str	r3, [r0, #0]
  189790:	e001      	b.n	189796 <normalise+0x12>
  189792:	6001      	str	r1, [r0, #0]
  189794:	6083      	str	r3, [r0, #8]
  189796:	42a2      	cmp	r2, r4
  189798:	dd02      	ble.n	1897a0 <normalise+0x1c>
  18979a:	60c2      	str	r2, [r0, #12]
  18979c:	6044      	str	r4, [r0, #4]
  18979e:	e001      	b.n	1897a4 <normalise+0x20>
  1897a0:	6042      	str	r2, [r0, #4]
  1897a2:	60c4      	str	r4, [r0, #12]
  1897a4:	6882      	ldr	r2, [r0, #8]
  1897a6:	2300      	movs	r3, #0
  1897a8:	429a      	cmp	r2, r3
  1897aa:	db0d      	blt.n	1897c8 <normalise+0x44>
  1897ac:	68c2      	ldr	r2, [r0, #12]
  1897ae:	429a      	cmp	r2, r3
  1897b0:	db0a      	blt.n	1897c8 <normalise+0x44>
  1897b2:	4a07      	ldr	r2, [pc, #28]	; (1897d0 <normalise+0x4c>)
  1897b4:	6804      	ldr	r4, [r0, #0]
  1897b6:	6851      	ldr	r1, [r2, #4]
  1897b8:	428c      	cmp	r4, r1
  1897ba:	da05      	bge.n	1897c8 <normalise+0x44>
  1897bc:	2301      	movs	r3, #1
  1897be:	6841      	ldr	r1, [r0, #4]
  1897c0:	6892      	ldr	r2, [r2, #8]
  1897c2:	4291      	cmp	r1, r2
  1897c4:	db00      	blt.n	1897c8 <normalise+0x44>
  1897c6:	2300      	movs	r3, #0
  1897c8:	1c18      	adds	r0, r3, #0
  1897ca:	bc10      	pop	{r4}
  1897cc:	bc02      	pop	{r1}
  1897ce:	4708      	bx	r1
  1897d0:	001a4f98 	.word	0x001a4f98

001897d4 <shrink>:
  1897d4:	6803      	ldr	r3, [r0, #0]
  1897d6:	3301      	adds	r3, #1
  1897d8:	6003      	str	r3, [r0, #0]
  1897da:	6883      	ldr	r3, [r0, #8]
  1897dc:	3b01      	subs	r3, #1
  1897de:	6083      	str	r3, [r0, #8]
  1897e0:	6843      	ldr	r3, [r0, #4]
  1897e2:	3301      	adds	r3, #1
  1897e4:	6043      	str	r3, [r0, #4]
  1897e6:	68c3      	ldr	r3, [r0, #12]
  1897e8:	3b01      	subs	r3, #1
  1897ea:	60c3      	str	r3, [r0, #12]
  1897ec:	4770      	bx	lr

001897ee <shift>:
  1897ee:	6803      	ldr	r3, [r0, #0]
  1897f0:	3301      	adds	r3, #1
  1897f2:	6003      	str	r3, [r0, #0]
  1897f4:	6883      	ldr	r3, [r0, #8]
  1897f6:	3301      	adds	r3, #1
  1897f8:	6083      	str	r3, [r0, #8]
  1897fa:	6843      	ldr	r3, [r0, #4]
  1897fc:	3301      	adds	r3, #1
  1897fe:	6043      	str	r3, [r0, #4]
  189800:	68c3      	ldr	r3, [r0, #12]
  189802:	3301      	adds	r3, #1
  189804:	60c3      	str	r3, [r0, #12]
  189806:	4770      	bx	lr

00189808 <draw_set_draw_proc>:
  189808:	2800      	cmp	r0, #0
  18980a:	d100      	bne.n	18980e <draw_set_draw_proc+0x6>
  18980c:	4801      	ldr	r0, [pc, #4]	; (189814 <draw_set_draw_proc+0xc>)
  18980e:	4b02      	ldr	r3, [pc, #8]	; (189818 <draw_set_draw_proc+0x10>)
  189810:	6018      	str	r0, [r3, #0]
  189812:	4770      	bx	lr
  189814:	00189771 	.word	0x00189771
  189818:	001a9620 	.word	0x001a9620

0018981c <draw_set_guard>:
  18981c:	4a03      	ldr	r2, [pc, #12]	; (18982c <draw_set_guard+0x10>)
  18981e:	6811      	ldr	r1, [r2, #0]
  189820:	2344      	movs	r3, #68	; 0x44
  189822:	700b      	strb	r3, [r1, #0]
  189824:	6852      	ldr	r2, [r2, #4]
  189826:	7013      	strb	r3, [r2, #0]
  189828:	4770      	bx	lr
  18982a:	46c0      	nop			; (mov r8, r8)
  18982c:	001a8370 	.word	0x001a8370

00189830 <draw_test_guard>:
  189830:	4b05      	ldr	r3, [pc, #20]	; (189848 <draw_test_guard+0x18>)
  189832:	681a      	ldr	r2, [r3, #0]
  189834:	7812      	ldrb	r2, [r2, #0]
  189836:	2000      	movs	r0, #0
  189838:	2a44      	cmp	r2, #68	; 0x44
  18983a:	d104      	bne.n	189846 <draw_test_guard+0x16>
  18983c:	685b      	ldr	r3, [r3, #4]
  18983e:	7818      	ldrb	r0, [r3, #0]
  189840:	3844      	subs	r0, #68	; 0x44
  189842:	4243      	negs	r3, r0
  189844:	4158      	adcs	r0, r3
  189846:	4770      	bx	lr
  189848:	001a8370 	.word	0x001a8370

0018984c <draw_init>:
  18984c:	b500      	push	{lr}
  18984e:	f012 fb53 	bl	19bef8 <__vid_get_bitmap_fb_from_thumb>
  189852:	4b06      	ldr	r3, [pc, #24]	; (18986c <draw_init+0x20>)
  189854:	6018      	str	r0, [r3, #0]
  189856:	4a06      	ldr	r2, [pc, #24]	; (189870 <draw_init+0x24>)
  189858:	69d2      	ldr	r2, [r2, #28]
  18985a:	1880      	adds	r0, r0, r2
  18985c:	6058      	str	r0, [r3, #4]
  18985e:	2000      	movs	r0, #0
  189860:	f7ff ffd2 	bl	189808 <draw_set_draw_proc>
  189864:	f7ff ffda 	bl	18981c <draw_set_guard>
  189868:	bc01      	pop	{r0}
  18986a:	4700      	bx	r0
  18986c:	001a8370 	.word	0x001a8370
  189870:	001a4f98 	.word	0x001a4f98

00189874 <draw_restore>:
  189874:	b500      	push	{lr}
  189876:	f012 fc27 	bl	19c0c8 <__vid_bitmap_refresh_from_thumb>
  18987a:	f7ff ffcf 	bl	18981c <draw_set_guard>
  18987e:	bc01      	pop	{r0}
  189880:	4700      	bx	r0

00189882 <draw_pixel>:
  189882:	b570      	push	{r4, r5, r6, lr}
  189884:	0416      	lsls	r6, r2, #16
  189886:	0c36      	lsrs	r6, r6, #16
  189888:	2900      	cmp	r1, #0
  18988a:	db1a      	blt.n	1898c2 <draw_pixel+0x40>
  18988c:	2800      	cmp	r0, #0
  18988e:	db18      	blt.n	1898c2 <draw_pixel+0x40>
  189890:	4b0d      	ldr	r3, [pc, #52]	; (1898c8 <draw_pixel+0x46>)
  189892:	685a      	ldr	r2, [r3, #4]
  189894:	4290      	cmp	r0, r2
  189896:	da14      	bge.n	1898c2 <draw_pixel+0x40>
  189898:	689a      	ldr	r2, [r3, #8]
  18989a:	4291      	cmp	r1, r2
  18989c:	da11      	bge.n	1898c2 <draw_pixel+0x40>
  18989e:	1c0a      	adds	r2, r1, #0
  1898a0:	4302      	orrs	r2, r0
  1898a2:	d00e      	beq.n	1898c2 <draw_pixel+0x40>
  1898a4:	695c      	ldr	r4, [r3, #20]
  1898a6:	434c      	muls	r4, r1
  1898a8:	0040      	lsls	r0, r0, #1
  1898aa:	1824      	adds	r4, r4, r0
  1898ac:	4d07      	ldr	r5, [pc, #28]	; (1898cc <draw_pixel+0x4a>)
  1898ae:	682b      	ldr	r3, [r5, #0]
  1898b0:	1c20      	adds	r0, r4, #0
  1898b2:	1c31      	adds	r1, r6, #0
  1898b4:	f000 fe5c 	bl	18a570 <draw_get_icon_colors+0x50>
  1898b8:	1c60      	adds	r0, r4, #1
  1898ba:	682b      	ldr	r3, [r5, #0]
  1898bc:	1c31      	adds	r1, r6, #0
  1898be:	f000 fe57 	bl	18a570 <draw_get_icon_colors+0x50>
  1898c2:	bc70      	pop	{r4, r5, r6}
  1898c4:	bc01      	pop	{r0}
  1898c6:	4700      	bx	r0
  1898c8:	001a4f98 	.word	0x001a4f98
  1898cc:	001a9620 	.word	0x001a9620

001898d0 <draw_get_pixel>:
  1898d0:	b510      	push	{r4, lr}
  1898d2:	1c03      	adds	r3, r0, #0
  1898d4:	2900      	cmp	r1, #0
  1898d6:	db10      	blt.n	1898fa <draw_get_pixel+0x2a>
  1898d8:	0fc0      	lsrs	r0, r0, #31
  1898da:	d10e      	bne.n	1898fa <draw_get_pixel+0x2a>
  1898dc:	4a09      	ldr	r2, [pc, #36]	; (189904 <draw_get_pixel+0x34>)
  1898de:	6854      	ldr	r4, [r2, #4]
  1898e0:	42a3      	cmp	r3, r4
  1898e2:	da0b      	bge.n	1898fc <draw_get_pixel+0x2c>
  1898e4:	6894      	ldr	r4, [r2, #8]
  1898e6:	42a1      	cmp	r1, r4
  1898e8:	da08      	bge.n	1898fc <draw_get_pixel+0x2c>
  1898ea:	6952      	ldr	r2, [r2, #20]
  1898ec:	4351      	muls	r1, r2
  1898ee:	005b      	lsls	r3, r3, #1
  1898f0:	4a05      	ldr	r2, [pc, #20]	; (189908 <draw_get_pixel+0x38>)
  1898f2:	6812      	ldr	r2, [r2, #0]
  1898f4:	1851      	adds	r1, r2, r1
  1898f6:	5cc8      	ldrb	r0, [r1, r3]
  1898f8:	e000      	b.n	1898fc <draw_get_pixel+0x2c>
  1898fa:	2000      	movs	r0, #0
  1898fc:	bc10      	pop	{r4}
  1898fe:	bc02      	pop	{r1}
  189900:	4708      	bx	r1
  189902:	46c0      	nop			; (mov r8, r8)
  189904:	001a4f98 	.word	0x001a4f98
  189908:	001a8370 	.word	0x001a8370

0018990c <draw_line>:
  18990c:	b5f0      	push	{r4, r5, r6, r7, lr}
  18990e:	b086      	sub	sp, #24
  189910:	1c14      	adds	r4, r2, #0
  189912:	9f0b      	ldr	r7, [sp, #44]	; 0x2c
  189914:	043f      	lsls	r7, r7, #16
  189916:	0c3f      	lsrs	r7, r7, #16
  189918:	1a5d      	subs	r5, r3, r1
  18991a:	17ea      	asrs	r2, r5, #31
  18991c:	18ad      	adds	r5, r5, r2
  18991e:	4055      	eors	r5, r2
  189920:	1a22      	subs	r2, r4, r0
  189922:	17d6      	asrs	r6, r2, #31
  189924:	1992      	adds	r2, r2, r6
  189926:	4072      	eors	r2, r6
  189928:	4295      	cmp	r5, r2
  18992a:	dd08      	ble.n	18993e <draw_line+0x32>
  18992c:	2501      	movs	r5, #1
  18992e:	9500      	str	r5, [sp, #0]
  189930:	4048      	eors	r0, r1
  189932:	4041      	eors	r1, r0
  189934:	4048      	eors	r0, r1
  189936:	405c      	eors	r4, r3
  189938:	4063      	eors	r3, r4
  18993a:	405c      	eors	r4, r3
  18993c:	e001      	b.n	189942 <draw_line+0x36>
  18993e:	2600      	movs	r6, #0
  189940:	9600      	str	r6, [sp, #0]
  189942:	42a0      	cmp	r0, r4
  189944:	dd05      	ble.n	189952 <draw_line+0x46>
  189946:	4060      	eors	r0, r4
  189948:	4044      	eors	r4, r0
  18994a:	4060      	eors	r0, r4
  18994c:	4059      	eors	r1, r3
  18994e:	404b      	eors	r3, r1
  189950:	4059      	eors	r1, r3
  189952:	1a25      	subs	r5, r4, r0
  189954:	9501      	str	r5, [sp, #4]
  189956:	1a5a      	subs	r2, r3, r1
  189958:	17d5      	asrs	r5, r2, #31
  18995a:	1956      	adds	r6, r2, r5
  18995c:	406e      	eors	r6, r5
  18995e:	9605      	str	r6, [sp, #20]
  189960:	17cd      	asrs	r5, r1, #31
  189962:	0fda      	lsrs	r2, r3, #31
  189964:	4299      	cmp	r1, r3
  189966:	416a      	adcs	r2, r5
  189968:	4252      	negs	r2, r2
  18996a:	2301      	movs	r3, #1
  18996c:	4313      	orrs	r3, r2
  18996e:	9304      	str	r3, [sp, #16]
  189970:	1c05      	adds	r5, r0, #0
  189972:	9103      	str	r1, [sp, #12]
  189974:	2600      	movs	r6, #0
  189976:	9702      	str	r7, [sp, #8]
  189978:	1c0f      	adds	r7, r1, #0
  18997a:	e014      	b.n	1899a6 <draw_line+0x9a>
  18997c:	9a00      	ldr	r2, [sp, #0]
  18997e:	2a00      	cmp	r2, #0
  189980:	d002      	beq.n	189988 <draw_line+0x7c>
  189982:	1c38      	adds	r0, r7, #0
  189984:	1c29      	adds	r1, r5, #0
  189986:	e001      	b.n	18998c <draw_line+0x80>
  189988:	1c28      	adds	r0, r5, #0
  18998a:	1c39      	adds	r1, r7, #0
  18998c:	9a02      	ldr	r2, [sp, #8]
  18998e:	f7ff ff78 	bl	189882 <draw_pixel>
  189992:	9b05      	ldr	r3, [sp, #20]
  189994:	18f6      	adds	r6, r6, r3
  189996:	0073      	lsls	r3, r6, #1
  189998:	9a01      	ldr	r2, [sp, #4]
  18999a:	4293      	cmp	r3, r2
  18999c:	db02      	blt.n	1899a4 <draw_line+0x98>
  18999e:	9b04      	ldr	r3, [sp, #16]
  1899a0:	18ff      	adds	r7, r7, r3
  1899a2:	1ab6      	subs	r6, r6, r2
  1899a4:	3501      	adds	r5, #1
  1899a6:	42a5      	cmp	r5, r4
  1899a8:	dde8      	ble.n	18997c <draw_line+0x70>
  1899aa:	b006      	add	sp, #24
  1899ac:	bcf0      	pop	{r4, r5, r6, r7}
  1899ae:	bc01      	pop	{r0}
  1899b0:	4700      	bx	r0

001899b2 <draw_hline>:
  1899b2:	b5f0      	push	{r4, r5, r6, r7, lr}
  1899b4:	041e      	lsls	r6, r3, #16
  1899b6:	0c36      	lsrs	r6, r6, #16
  1899b8:	2900      	cmp	r1, #0
  1899ba:	db1e      	blt.n	1899fa <draw_hline+0x48>
  1899bc:	4c10      	ldr	r4, [pc, #64]	; (189a00 <draw_hline+0x4e>)
  1899be:	6863      	ldr	r3, [r4, #4]
  1899c0:	4298      	cmp	r0, r3
  1899c2:	da1a      	bge.n	1899fa <draw_hline+0x48>
  1899c4:	68a5      	ldr	r5, [r4, #8]
  1899c6:	42a9      	cmp	r1, r5
  1899c8:	da17      	bge.n	1899fa <draw_hline+0x48>
  1899ca:	2800      	cmp	r0, #0
  1899cc:	da01      	bge.n	1899d2 <draw_hline+0x20>
  1899ce:	1812      	adds	r2, r2, r0
  1899d0:	2000      	movs	r0, #0
  1899d2:	1885      	adds	r5, r0, r2
  1899d4:	429d      	cmp	r5, r3
  1899d6:	dd00      	ble.n	1899da <draw_hline+0x28>
  1899d8:	1a1a      	subs	r2, r3, r0
  1899da:	6967      	ldr	r7, [r4, #20]
  1899dc:	434f      	muls	r7, r1
  1899de:	0040      	lsls	r0, r0, #1
  1899e0:	183f      	adds	r7, r7, r0
  1899e2:	0054      	lsls	r4, r2, #1
  1899e4:	4d07      	ldr	r5, [pc, #28]	; (189a04 <draw_hline+0x52>)
  1899e6:	e006      	b.n	1899f6 <draw_hline+0x44>
  1899e8:	682b      	ldr	r3, [r5, #0]
  1899ea:	1c38      	adds	r0, r7, #0
  1899ec:	1c31      	adds	r1, r6, #0
  1899ee:	f000 fdbf 	bl	18a570 <draw_get_icon_colors+0x50>
  1899f2:	3c01      	subs	r4, #1
  1899f4:	3701      	adds	r7, #1
  1899f6:	2c00      	cmp	r4, #0
  1899f8:	dcf6      	bgt.n	1899e8 <draw_hline+0x36>
  1899fa:	bcf0      	pop	{r4, r5, r6, r7}
  1899fc:	bc01      	pop	{r0}
  1899fe:	4700      	bx	r0
  189a00:	001a4f98 	.word	0x001a4f98
  189a04:	001a9620 	.word	0x001a9620

00189a08 <fill_rect>:
  189a08:	b5f0      	push	{r4, r5, r6, r7, lr}
  189a0a:	b085      	sub	sp, #20
  189a0c:	1c06      	adds	r6, r0, #0
  189a0e:	9001      	str	r0, [sp, #4]
  189a10:	1c0c      	adds	r4, r1, #0
  189a12:	9102      	str	r1, [sp, #8]
  189a14:	1c11      	adds	r1, r2, #0
  189a16:	9203      	str	r2, [sp, #12]
  189a18:	1c1d      	adds	r5, r3, #0
  189a1a:	9304      	str	r3, [sp, #16]
  189a1c:	9f0a      	ldr	r7, [sp, #40]	; 0x28
  189a1e:	043f      	lsls	r7, r7, #16
  189a20:	0c3f      	lsrs	r7, r7, #16
  189a22:	43c3      	mvns	r3, r0
  189a24:	17db      	asrs	r3, r3, #31
  189a26:	401e      	ands	r6, r3
  189a28:	43e3      	mvns	r3, r4
  189a2a:	17db      	asrs	r3, r3, #31
  189a2c:	401c      	ands	r4, r3
  189a2e:	4a0d      	ldr	r2, [pc, #52]	; (189a64 <fill_rect+0x5c>)
  189a30:	6853      	ldr	r3, [r2, #4]
  189a32:	4299      	cmp	r1, r3
  189a34:	db00      	blt.n	189a38 <fill_rect+0x30>
  189a36:	1e59      	subs	r1, r3, #1
  189a38:	6893      	ldr	r3, [r2, #8]
  189a3a:	429d      	cmp	r5, r3
  189a3c:	db00      	blt.n	189a40 <fill_rect+0x38>
  189a3e:	1e5d      	subs	r5, r3, #1
  189a40:	0a3f      	lsrs	r7, r7, #8
  189a42:	1b89      	subs	r1, r1, r6
  189a44:	3101      	adds	r1, #1
  189a46:	9100      	str	r1, [sp, #0]
  189a48:	e006      	b.n	189a58 <fill_rect+0x50>
  189a4a:	1c30      	adds	r0, r6, #0
  189a4c:	1c21      	adds	r1, r4, #0
  189a4e:	9a00      	ldr	r2, [sp, #0]
  189a50:	1c3b      	adds	r3, r7, #0
  189a52:	f7ff ffae 	bl	1899b2 <draw_hline>
  189a56:	3401      	adds	r4, #1
  189a58:	42ac      	cmp	r4, r5
  189a5a:	ddf6      	ble.n	189a4a <fill_rect+0x42>
  189a5c:	b005      	add	sp, #20
  189a5e:	bcf0      	pop	{r4, r5, r6, r7}
  189a60:	bc01      	pop	{r0}
  189a62:	4700      	bx	r0
  189a64:	001a4f98 	.word	0x001a4f98

00189a68 <draw_vline>:
  189a68:	b5f0      	push	{r4, r5, r6, r7, lr}
  189a6a:	1c07      	adds	r7, r0, #0
  189a6c:	1c0c      	adds	r4, r1, #0
  189a6e:	1c15      	adds	r5, r2, #0
  189a70:	041e      	lsls	r6, r3, #16
  189a72:	0c36      	lsrs	r6, r6, #16
  189a74:	2800      	cmp	r0, #0
  189a76:	db18      	blt.n	189aaa <draw_vline+0x42>
  189a78:	4b0d      	ldr	r3, [pc, #52]	; (189ab0 <draw_vline+0x48>)
  189a7a:	685a      	ldr	r2, [r3, #4]
  189a7c:	4290      	cmp	r0, r2
  189a7e:	da14      	bge.n	189aaa <draw_vline+0x42>
  189a80:	689b      	ldr	r3, [r3, #8]
  189a82:	4299      	cmp	r1, r3
  189a84:	da11      	bge.n	189aaa <draw_vline+0x42>
  189a86:	2900      	cmp	r1, #0
  189a88:	da01      	bge.n	189a8e <draw_vline+0x26>
  189a8a:	186d      	adds	r5, r5, r1
  189a8c:	2400      	movs	r4, #0
  189a8e:	1962      	adds	r2, r4, r5
  189a90:	429a      	cmp	r2, r3
  189a92:	dd08      	ble.n	189aa6 <draw_vline+0x3e>
  189a94:	1b1d      	subs	r5, r3, r4
  189a96:	e006      	b.n	189aa6 <draw_vline+0x3e>
  189a98:	1c38      	adds	r0, r7, #0
  189a9a:	1c21      	adds	r1, r4, #0
  189a9c:	1c32      	adds	r2, r6, #0
  189a9e:	f7ff fef0 	bl	189882 <draw_pixel>
  189aa2:	3d01      	subs	r5, #1
  189aa4:	3401      	adds	r4, #1
  189aa6:	2d00      	cmp	r5, #0
  189aa8:	dcf6      	bgt.n	189a98 <draw_vline+0x30>
  189aaa:	bcf0      	pop	{r4, r5, r6, r7}
  189aac:	bc01      	pop	{r0}
  189aae:	4700      	bx	r0
  189ab0:	001a4f98 	.word	0x001a4f98

00189ab4 <draw_rectangle>:
  189ab4:	b5f0      	push	{r4, r5, r6, r7, lr}
  189ab6:	b088      	sub	sp, #32
  189ab8:	1c06      	adds	r6, r0, #0
  189aba:	9004      	str	r0, [sp, #16]
  189abc:	9105      	str	r1, [sp, #20]
  189abe:	1c14      	adds	r4, r2, #0
  189ac0:	9206      	str	r2, [sp, #24]
  189ac2:	1c1a      	adds	r2, r3, #0
  189ac4:	9307      	str	r3, [sp, #28]
  189ac6:	9f0e      	ldr	r7, [sp, #56]	; 0x38
  189ac8:	9d0d      	ldr	r5, [sp, #52]	; 0x34
  189aca:	042d      	lsls	r5, r5, #16
  189acc:	0c2d      	lsrs	r5, r5, #16
  189ace:	9101      	str	r1, [sp, #4]
  189ad0:	9402      	str	r4, [sp, #8]
  189ad2:	9303      	str	r3, [sp, #12]
  189ad4:	007b      	lsls	r3, r7, #1
  189ad6:	18cb      	adds	r3, r1, r3
  189ad8:	9300      	str	r3, [sp, #0]
  189ada:	1a54      	subs	r4, r2, r1
  189adc:	00bb      	lsls	r3, r7, #2
  189ade:	1ae4      	subs	r4, r4, r3
  189ae0:	3401      	adds	r4, #1
  189ae2:	1c30      	adds	r0, r6, #0
  189ae4:	9900      	ldr	r1, [sp, #0]
  189ae6:	1c22      	adds	r2, r4, #0
  189ae8:	1c2b      	adds	r3, r5, #0
  189aea:	f7ff ffbd 	bl	189a68 <draw_vline>
  189aee:	9802      	ldr	r0, [sp, #8]
  189af0:	9900      	ldr	r1, [sp, #0]
  189af2:	1c22      	adds	r2, r4, #0
  189af4:	1c2b      	adds	r3, r5, #0
  189af6:	f7ff ffb7 	bl	189a68 <draw_vline>
  189afa:	1c73      	adds	r3, r6, #1
  189afc:	19db      	adds	r3, r3, r7
  189afe:	9300      	str	r3, [sp, #0]
  189b00:	9a02      	ldr	r2, [sp, #8]
  189b02:	1b94      	subs	r4, r2, r6
  189b04:	007f      	lsls	r7, r7, #1
  189b06:	1be4      	subs	r4, r4, r7
  189b08:	3c01      	subs	r4, #1
  189b0a:	1c18      	adds	r0, r3, #0
  189b0c:	9901      	ldr	r1, [sp, #4]
  189b0e:	1c22      	adds	r2, r4, #0
  189b10:	1c2b      	adds	r3, r5, #0
  189b12:	f7ff ff4e 	bl	1899b2 <draw_hline>
  189b16:	9800      	ldr	r0, [sp, #0]
  189b18:	9903      	ldr	r1, [sp, #12]
  189b1a:	1c22      	adds	r2, r4, #0
  189b1c:	1c2b      	adds	r3, r5, #0
  189b1e:	f7ff ff48 	bl	1899b2 <draw_hline>
  189b22:	b008      	add	sp, #32
  189b24:	bcf0      	pop	{r4, r5, r6, r7}
  189b26:	bc01      	pop	{r0}
  189b28:	4700      	bx	r0

00189b2a <draw_filled_rectangle_thick>:
  189b2a:	b5f0      	push	{r4, r5, r6, r7, lr}
  189b2c:	b088      	sub	sp, #32
  189b2e:	ac04      	add	r4, sp, #16
  189b30:	9004      	str	r0, [sp, #16]
  189b32:	6061      	str	r1, [r4, #4]
  189b34:	9202      	str	r2, [sp, #8]
  189b36:	60a2      	str	r2, [r4, #8]
  189b38:	9303      	str	r3, [sp, #12]
  189b3a:	60e3      	str	r3, [r4, #12]
  189b3c:	9e0d      	ldr	r6, [sp, #52]	; 0x34
  189b3e:	0436      	lsls	r6, r6, #16
  189b40:	0c36      	lsrs	r6, r6, #16
  189b42:	0635      	lsls	r5, r6, #24
  189b44:	0e2d      	lsrs	r5, r5, #24
  189b46:	9500      	str	r5, [sp, #0]
  189b48:	9b0f      	ldr	r3, [sp, #60]	; 0x3c
  189b4a:	9301      	str	r3, [sp, #4]
  189b4c:	9b03      	ldr	r3, [sp, #12]
  189b4e:	f7ff ffb1 	bl	189ab4 <draw_rectangle>
  189b52:	2701      	movs	r7, #1
  189b54:	e00b      	b.n	189b6e <draw_filled_rectangle_thick+0x44>
  189b56:	f7ff fe3d 	bl	1897d4 <shrink>
  189b5a:	9500      	str	r5, [sp, #0]
  189b5c:	2300      	movs	r3, #0
  189b5e:	9301      	str	r3, [sp, #4]
  189b60:	6820      	ldr	r0, [r4, #0]
  189b62:	6861      	ldr	r1, [r4, #4]
  189b64:	68a2      	ldr	r2, [r4, #8]
  189b66:	68e3      	ldr	r3, [r4, #12]
  189b68:	f7ff ffa4 	bl	189ab4 <draw_rectangle>
  189b6c:	3701      	adds	r7, #1
  189b6e:	9b0e      	ldr	r3, [sp, #56]	; 0x38
  189b70:	1c20      	adds	r0, r4, #0
  189b72:	429f      	cmp	r7, r3
  189b74:	dbef      	blt.n	189b56 <draw_filled_rectangle_thick+0x2c>
  189b76:	f7ff fe2d 	bl	1897d4 <shrink>
  189b7a:	9600      	str	r6, [sp, #0]
  189b7c:	9804      	ldr	r0, [sp, #16]
  189b7e:	3404      	adds	r4, #4
  189b80:	cc0e      	ldmia	r4!, {r1, r2, r3}
  189b82:	f7ff ff41 	bl	189a08 <fill_rect>
  189b86:	b008      	add	sp, #32
  189b88:	bcf0      	pop	{r4, r5, r6, r7}
  189b8a:	bc01      	pop	{r0}
  189b8c:	4700      	bx	r0

00189b8e <draw_rectangle_thick>:
  189b8e:	b5f0      	push	{r4, r5, r6, r7, lr}
  189b90:	b087      	sub	sp, #28
  189b92:	ac03      	add	r4, sp, #12
  189b94:	9003      	str	r0, [sp, #12]
  189b96:	6061      	str	r1, [r4, #4]
  189b98:	60a2      	str	r2, [r4, #8]
  189b9a:	9302      	str	r3, [sp, #8]
  189b9c:	60e3      	str	r3, [r4, #12]
  189b9e:	9d0c      	ldr	r5, [sp, #48]	; 0x30
  189ba0:	062d      	lsls	r5, r5, #24
  189ba2:	0e2d      	lsrs	r5, r5, #24
  189ba4:	9500      	str	r5, [sp, #0]
  189ba6:	9b0e      	ldr	r3, [sp, #56]	; 0x38
  189ba8:	9301      	str	r3, [sp, #4]
  189baa:	9b02      	ldr	r3, [sp, #8]
  189bac:	f7ff ff82 	bl	189ab4 <draw_rectangle>
  189bb0:	2601      	movs	r6, #1
  189bb2:	2700      	movs	r7, #0
  189bb4:	e00b      	b.n	189bce <draw_rectangle_thick+0x40>
  189bb6:	1c20      	adds	r0, r4, #0
  189bb8:	f7ff fe0c 	bl	1897d4 <shrink>
  189bbc:	9500      	str	r5, [sp, #0]
  189bbe:	9701      	str	r7, [sp, #4]
  189bc0:	6820      	ldr	r0, [r4, #0]
  189bc2:	6861      	ldr	r1, [r4, #4]
  189bc4:	68a2      	ldr	r2, [r4, #8]
  189bc6:	68e3      	ldr	r3, [r4, #12]
  189bc8:	f7ff ff74 	bl	189ab4 <draw_rectangle>
  189bcc:	3601      	adds	r6, #1
  189bce:	9b0d      	ldr	r3, [sp, #52]	; 0x34
  189bd0:	429e      	cmp	r6, r3
  189bd2:	dbf0      	blt.n	189bb6 <draw_rectangle_thick+0x28>
  189bd4:	b007      	add	sp, #28
  189bd6:	bcf0      	pop	{r4, r5, r6, r7}
  189bd8:	bc01      	pop	{r0}
  189bda:	4700      	bx	r0

00189bdc <draw_rect>:
  189bdc:	b5f0      	push	{r4, r5, r6, r7, lr}
  189bde:	b086      	sub	sp, #24
  189be0:	1c05      	adds	r5, r0, #0
  189be2:	1c0e      	adds	r6, r1, #0
  189be4:	1c17      	adds	r7, r2, #0
  189be6:	9c0b      	ldr	r4, [sp, #44]	; 0x2c
  189be8:	0424      	lsls	r4, r4, #16
  189bea:	0c24      	lsrs	r4, r4, #16
  189bec:	9300      	str	r3, [sp, #0]
  189bee:	a802      	add	r0, sp, #8
  189bf0:	1c29      	adds	r1, r5, #0
  189bf2:	1c32      	adds	r2, r6, #0
  189bf4:	1c3b      	adds	r3, r7, #0
  189bf6:	f7ff fdc5 	bl	189784 <normalise>
  189bfa:	2800      	cmp	r0, #0
  189bfc:	d00a      	beq.n	189c14 <draw_rect+0x38>
  189bfe:	0624      	lsls	r4, r4, #24
  189c00:	0e24      	lsrs	r4, r4, #24
  189c02:	9400      	str	r4, [sp, #0]
  189c04:	2300      	movs	r3, #0
  189c06:	9301      	str	r3, [sp, #4]
  189c08:	9802      	ldr	r0, [sp, #8]
  189c0a:	9903      	ldr	r1, [sp, #12]
  189c0c:	9a04      	ldr	r2, [sp, #16]
  189c0e:	9b05      	ldr	r3, [sp, #20]
  189c10:	f7ff ff50 	bl	189ab4 <draw_rectangle>
  189c14:	b006      	add	sp, #24
  189c16:	bcf0      	pop	{r4, r5, r6, r7}
  189c18:	bc01      	pop	{r0}
  189c1a:	4700      	bx	r0

00189c1c <draw_rect_thick>:
  189c1c:	b5f0      	push	{r4, r5, r6, r7, lr}
  189c1e:	b087      	sub	sp, #28
  189c20:	1c05      	adds	r5, r0, #0
  189c22:	1c0e      	adds	r6, r1, #0
  189c24:	1c17      	adds	r7, r2, #0
  189c26:	9c0c      	ldr	r4, [sp, #48]	; 0x30
  189c28:	0424      	lsls	r4, r4, #16
  189c2a:	0c24      	lsrs	r4, r4, #16
  189c2c:	9300      	str	r3, [sp, #0]
  189c2e:	a803      	add	r0, sp, #12
  189c30:	1c29      	adds	r1, r5, #0
  189c32:	1c32      	adds	r2, r6, #0
  189c34:	1c3b      	adds	r3, r7, #0
  189c36:	f7ff fda5 	bl	189784 <normalise>
  189c3a:	2800      	cmp	r0, #0
  189c3c:	d00c      	beq.n	189c58 <draw_rect_thick+0x3c>
  189c3e:	0624      	lsls	r4, r4, #24
  189c40:	0e24      	lsrs	r4, r4, #24
  189c42:	9400      	str	r4, [sp, #0]
  189c44:	9b0d      	ldr	r3, [sp, #52]	; 0x34
  189c46:	9301      	str	r3, [sp, #4]
  189c48:	2300      	movs	r3, #0
  189c4a:	9302      	str	r3, [sp, #8]
  189c4c:	9803      	ldr	r0, [sp, #12]
  189c4e:	9904      	ldr	r1, [sp, #16]
  189c50:	9a05      	ldr	r2, [sp, #20]
  189c52:	9b06      	ldr	r3, [sp, #24]
  189c54:	f7ff ff9b 	bl	189b8e <draw_rectangle_thick>
  189c58:	b007      	add	sp, #28
  189c5a:	bcf0      	pop	{r4, r5, r6, r7}
  189c5c:	bc01      	pop	{r0}
  189c5e:	4700      	bx	r0

00189c60 <draw_rect_shadow>:
  189c60:	b5f0      	push	{r4, r5, r6, r7, lr}
  189c62:	b087      	sub	sp, #28
  189c64:	1c04      	adds	r4, r0, #0
  189c66:	1c0d      	adds	r5, r1, #0
  189c68:	1c16      	adds	r6, r2, #0
  189c6a:	9f0c      	ldr	r7, [sp, #48]	; 0x30
  189c6c:	063f      	lsls	r7, r7, #24
  189c6e:	0e3f      	lsrs	r7, r7, #24
  189c70:	aa03      	add	r2, sp, #12
  189c72:	9202      	str	r2, [sp, #8]
  189c74:	9300      	str	r3, [sp, #0]
  189c76:	1c10      	adds	r0, r2, #0
  189c78:	1c21      	adds	r1, r4, #0
  189c7a:	1c2a      	adds	r2, r5, #0
  189c7c:	1c33      	adds	r3, r6, #0
  189c7e:	f7ff fd81 	bl	189784 <normalise>
  189c82:	2500      	movs	r5, #0
  189c84:	42a8      	cmp	r0, r5
  189c86:	d10d      	bne.n	189ca4 <draw_rect_shadow+0x44>
  189c88:	e011      	b.n	189cae <draw_rect_shadow+0x4e>
  189c8a:	9700      	str	r7, [sp, #0]
  189c8c:	9601      	str	r6, [sp, #4]
  189c8e:	6820      	ldr	r0, [r4, #0]
  189c90:	6861      	ldr	r1, [r4, #4]
  189c92:	68a2      	ldr	r2, [r4, #8]
  189c94:	68e3      	ldr	r3, [r4, #12]
  189c96:	f7ff ff0d 	bl	189ab4 <draw_rectangle>
  189c9a:	1c20      	adds	r0, r4, #0
  189c9c:	f7ff fda7 	bl	1897ee <shift>
  189ca0:	3501      	adds	r5, #1
  189ca2:	e001      	b.n	189ca8 <draw_rect_shadow+0x48>
  189ca4:	ac03      	add	r4, sp, #12
  189ca6:	1c2e      	adds	r6, r5, #0
  189ca8:	9b0d      	ldr	r3, [sp, #52]	; 0x34
  189caa:	429d      	cmp	r5, r3
  189cac:	dbed      	blt.n	189c8a <draw_rect_shadow+0x2a>
  189cae:	b007      	add	sp, #28
  189cb0:	bcf0      	pop	{r4, r5, r6, r7}
  189cb2:	bc01      	pop	{r0}
  189cb4:	4700      	bx	r0

00189cb6 <draw_round_rect>:
  189cb6:	b5f0      	push	{r4, r5, r6, r7, lr}
  189cb8:	b086      	sub	sp, #24
  189cba:	1c05      	adds	r5, r0, #0
  189cbc:	1c0e      	adds	r6, r1, #0
  189cbe:	1c17      	adds	r7, r2, #0
  189cc0:	9c0b      	ldr	r4, [sp, #44]	; 0x2c
  189cc2:	0424      	lsls	r4, r4, #16
  189cc4:	0c24      	lsrs	r4, r4, #16
  189cc6:	9300      	str	r3, [sp, #0]
  189cc8:	a802      	add	r0, sp, #8
  189cca:	1c29      	adds	r1, r5, #0
  189ccc:	1c32      	adds	r2, r6, #0
  189cce:	1c3b      	adds	r3, r7, #0
  189cd0:	f7ff fd58 	bl	189784 <normalise>
  189cd4:	2800      	cmp	r0, #0
  189cd6:	d00a      	beq.n	189cee <draw_round_rect+0x38>
  189cd8:	0624      	lsls	r4, r4, #24
  189cda:	0e24      	lsrs	r4, r4, #24
  189cdc:	9400      	str	r4, [sp, #0]
  189cde:	2301      	movs	r3, #1
  189ce0:	9301      	str	r3, [sp, #4]
  189ce2:	9802      	ldr	r0, [sp, #8]
  189ce4:	9903      	ldr	r1, [sp, #12]
  189ce6:	9a04      	ldr	r2, [sp, #16]
  189ce8:	9b05      	ldr	r3, [sp, #20]
  189cea:	f7ff fee3 	bl	189ab4 <draw_rectangle>
  189cee:	b006      	add	sp, #24
  189cf0:	bcf0      	pop	{r4, r5, r6, r7}
  189cf2:	bc01      	pop	{r0}
  189cf4:	4700      	bx	r0

00189cf6 <draw_round_rect_thick>:
  189cf6:	b5f0      	push	{r4, r5, r6, r7, lr}
  189cf8:	b087      	sub	sp, #28
  189cfa:	1c05      	adds	r5, r0, #0
  189cfc:	1c0e      	adds	r6, r1, #0
  189cfe:	1c17      	adds	r7, r2, #0
  189d00:	9c0c      	ldr	r4, [sp, #48]	; 0x30
  189d02:	0424      	lsls	r4, r4, #16
  189d04:	0c24      	lsrs	r4, r4, #16
  189d06:	9300      	str	r3, [sp, #0]
  189d08:	a803      	add	r0, sp, #12
  189d0a:	1c29      	adds	r1, r5, #0
  189d0c:	1c32      	adds	r2, r6, #0
  189d0e:	1c3b      	adds	r3, r7, #0
  189d10:	f7ff fd38 	bl	189784 <normalise>
  189d14:	2800      	cmp	r0, #0
  189d16:	d00c      	beq.n	189d32 <draw_round_rect_thick+0x3c>
  189d18:	0624      	lsls	r4, r4, #24
  189d1a:	0e24      	lsrs	r4, r4, #24
  189d1c:	9400      	str	r4, [sp, #0]
  189d1e:	9b0d      	ldr	r3, [sp, #52]	; 0x34
  189d20:	9301      	str	r3, [sp, #4]
  189d22:	2301      	movs	r3, #1
  189d24:	9302      	str	r3, [sp, #8]
  189d26:	9803      	ldr	r0, [sp, #12]
  189d28:	9904      	ldr	r1, [sp, #16]
  189d2a:	9a05      	ldr	r2, [sp, #20]
  189d2c:	9b06      	ldr	r3, [sp, #24]
  189d2e:	f7ff ff2e 	bl	189b8e <draw_rectangle_thick>
  189d32:	b007      	add	sp, #28
  189d34:	bcf0      	pop	{r4, r5, r6, r7}
  189d36:	bc01      	pop	{r0}
  189d38:	4700      	bx	r0

00189d3a <draw_filled_rect>:
  189d3a:	b5f0      	push	{r4, r5, r6, r7, lr}
  189d3c:	b087      	sub	sp, #28
  189d3e:	1c05      	adds	r5, r0, #0
  189d40:	1c0e      	adds	r6, r1, #0
  189d42:	1c17      	adds	r7, r2, #0
  189d44:	9c0c      	ldr	r4, [sp, #48]	; 0x30
  189d46:	0424      	lsls	r4, r4, #16
  189d48:	0c24      	lsrs	r4, r4, #16
  189d4a:	9300      	str	r3, [sp, #0]
  189d4c:	a803      	add	r0, sp, #12
  189d4e:	1c29      	adds	r1, r5, #0
  189d50:	1c32      	adds	r2, r6, #0
  189d52:	1c3b      	adds	r3, r7, #0
  189d54:	f7ff fd16 	bl	189784 <normalise>
  189d58:	2800      	cmp	r0, #0
  189d5a:	d00a      	beq.n	189d72 <draw_filled_rect+0x38>
  189d5c:	9400      	str	r4, [sp, #0]
  189d5e:	2301      	movs	r3, #1
  189d60:	9301      	str	r3, [sp, #4]
  189d62:	2300      	movs	r3, #0
  189d64:	9302      	str	r3, [sp, #8]
  189d66:	9803      	ldr	r0, [sp, #12]
  189d68:	9904      	ldr	r1, [sp, #16]
  189d6a:	9a05      	ldr	r2, [sp, #20]
  189d6c:	9b06      	ldr	r3, [sp, #24]
  189d6e:	f7ff fedc 	bl	189b2a <draw_filled_rectangle_thick>
  189d72:	b007      	add	sp, #28
  189d74:	bcf0      	pop	{r4, r5, r6, r7}
  189d76:	bc01      	pop	{r0}
  189d78:	4700      	bx	r0

00189d7a <draw_filled_rect_thick>:
  189d7a:	b5f0      	push	{r4, r5, r6, r7, lr}
  189d7c:	b087      	sub	sp, #28
  189d7e:	1c05      	adds	r5, r0, #0
  189d80:	1c0e      	adds	r6, r1, #0
  189d82:	1c17      	adds	r7, r2, #0
  189d84:	9c0c      	ldr	r4, [sp, #48]	; 0x30
  189d86:	0424      	lsls	r4, r4, #16
  189d88:	0c24      	lsrs	r4, r4, #16
  189d8a:	9300      	str	r3, [sp, #0]
  189d8c:	a803      	add	r0, sp, #12
  189d8e:	1c29      	adds	r1, r5, #0
  189d90:	1c32      	adds	r2, r6, #0
  189d92:	1c3b      	adds	r3, r7, #0
  189d94:	f7ff fcf6 	bl	189784 <normalise>
  189d98:	2800      	cmp	r0, #0
  189d9a:	d00a      	beq.n	189db2 <draw_filled_rect_thick+0x38>
  189d9c:	9400      	str	r4, [sp, #0]
  189d9e:	9b0d      	ldr	r3, [sp, #52]	; 0x34
  189da0:	9301      	str	r3, [sp, #4]
  189da2:	2300      	movs	r3, #0
  189da4:	9302      	str	r3, [sp, #8]
  189da6:	9803      	ldr	r0, [sp, #12]
  189da8:	9904      	ldr	r1, [sp, #16]
  189daa:	9a05      	ldr	r2, [sp, #20]
  189dac:	9b06      	ldr	r3, [sp, #24]
  189dae:	f7ff febc 	bl	189b2a <draw_filled_rectangle_thick>
  189db2:	b007      	add	sp, #28
  189db4:	bcf0      	pop	{r4, r5, r6, r7}
  189db6:	bc01      	pop	{r0}
  189db8:	4700      	bx	r0

00189dba <draw_filled_round_rect>:
  189dba:	b5f0      	push	{r4, r5, r6, r7, lr}
  189dbc:	b087      	sub	sp, #28
  189dbe:	1c05      	adds	r5, r0, #0
  189dc0:	1c0e      	adds	r6, r1, #0
  189dc2:	1c17      	adds	r7, r2, #0
  189dc4:	9c0c      	ldr	r4, [sp, #48]	; 0x30
  189dc6:	0424      	lsls	r4, r4, #16
  189dc8:	0c24      	lsrs	r4, r4, #16
  189dca:	9300      	str	r3, [sp, #0]
  189dcc:	a803      	add	r0, sp, #12
  189dce:	1c29      	adds	r1, r5, #0
  189dd0:	1c32      	adds	r2, r6, #0
  189dd2:	1c3b      	adds	r3, r7, #0
  189dd4:	f7ff fcd6 	bl	189784 <normalise>
  189dd8:	2800      	cmp	r0, #0
  189dda:	d009      	beq.n	189df0 <draw_filled_round_rect+0x36>
  189ddc:	9400      	str	r4, [sp, #0]
  189dde:	2301      	movs	r3, #1
  189de0:	9301      	str	r3, [sp, #4]
  189de2:	9302      	str	r3, [sp, #8]
  189de4:	9803      	ldr	r0, [sp, #12]
  189de6:	9904      	ldr	r1, [sp, #16]
  189de8:	9a05      	ldr	r2, [sp, #20]
  189dea:	9b06      	ldr	r3, [sp, #24]
  189dec:	f7ff fe9d 	bl	189b2a <draw_filled_rectangle_thick>
  189df0:	b007      	add	sp, #28
  189df2:	bcf0      	pop	{r4, r5, r6, r7}
  189df4:	bc01      	pop	{r0}
  189df6:	4700      	bx	r0

00189df8 <draw_filled_round_rect_thick>:
  189df8:	b5f0      	push	{r4, r5, r6, r7, lr}
  189dfa:	b087      	sub	sp, #28
  189dfc:	1c05      	adds	r5, r0, #0
  189dfe:	1c0e      	adds	r6, r1, #0
  189e00:	1c17      	adds	r7, r2, #0
  189e02:	9c0c      	ldr	r4, [sp, #48]	; 0x30
  189e04:	0424      	lsls	r4, r4, #16
  189e06:	0c24      	lsrs	r4, r4, #16
  189e08:	9300      	str	r3, [sp, #0]
  189e0a:	a803      	add	r0, sp, #12
  189e0c:	1c29      	adds	r1, r5, #0
  189e0e:	1c32      	adds	r2, r6, #0
  189e10:	1c3b      	adds	r3, r7, #0
  189e12:	f7ff fcb7 	bl	189784 <normalise>
  189e16:	2800      	cmp	r0, #0
  189e18:	d00a      	beq.n	189e30 <draw_filled_round_rect_thick+0x38>
  189e1a:	9400      	str	r4, [sp, #0]
  189e1c:	9b0d      	ldr	r3, [sp, #52]	; 0x34
  189e1e:	9301      	str	r3, [sp, #4]
  189e20:	2301      	movs	r3, #1
  189e22:	9302      	str	r3, [sp, #8]
  189e24:	9803      	ldr	r0, [sp, #12]
  189e26:	9904      	ldr	r1, [sp, #16]
  189e28:	9a05      	ldr	r2, [sp, #20]
  189e2a:	9b06      	ldr	r3, [sp, #24]
  189e2c:	f7ff fe7d 	bl	189b2a <draw_filled_rectangle_thick>
  189e30:	b007      	add	sp, #28
  189e32:	bcf0      	pop	{r4, r5, r6, r7}
  189e34:	bc01      	pop	{r0}
  189e36:	4700      	bx	r0

00189e38 <draw_char>:
  189e38:	b5f0      	push	{r4, r5, r6, r7, lr}
  189e3a:	b085      	sub	sp, #20
  189e3c:	9000      	str	r0, [sp, #0]
  189e3e:	9101      	str	r1, [sp, #4]
  189e40:	0610      	lsls	r0, r2, #24
  189e42:	0e00      	lsrs	r0, r0, #24
  189e44:	041f      	lsls	r7, r3, #16
  189e46:	0c3a      	lsrs	r2, r7, #16
  189e48:	9203      	str	r2, [sp, #12]
  189e4a:	f007 fd21 	bl	191890 <get_current_font_data>
  189e4e:	1c06      	adds	r6, r0, #0
  189e50:	7883      	ldrb	r3, [r0, #2]
  189e52:	1ac3      	subs	r3, r0, r3
  189e54:	3304      	adds	r3, #4
  189e56:	9302      	str	r3, [sp, #8]
  189e58:	0e3f      	lsrs	r7, r7, #24
  189e5a:	2400      	movs	r4, #0
  189e5c:	e007      	b.n	189e6e <draw_char+0x36>
  189e5e:	9b01      	ldr	r3, [sp, #4]
  189e60:	18e1      	adds	r1, r4, r3
  189e62:	9800      	ldr	r0, [sp, #0]
  189e64:	2208      	movs	r2, #8
  189e66:	1c3b      	adds	r3, r7, #0
  189e68:	f7ff fda3 	bl	1899b2 <draw_hline>
  189e6c:	3401      	adds	r4, #1
  189e6e:	78b3      	ldrb	r3, [r6, #2]
  189e70:	429c      	cmp	r4, r3
  189e72:	dbf4      	blt.n	189e5e <draw_char+0x26>
  189e74:	e016      	b.n	189ea4 <draw_char+0x6c>
  189e76:	2500      	movs	r5, #0
  189e78:	9a01      	ldr	r2, [sp, #4]
  189e7a:	18a2      	adds	r2, r4, r2
  189e7c:	9204      	str	r2, [sp, #16]
  189e7e:	9b00      	ldr	r3, [sp, #0]
  189e80:	18e8      	adds	r0, r5, r3
  189e82:	2380      	movs	r3, #128	; 0x80
  189e84:	412b      	asrs	r3, r5
  189e86:	9a02      	ldr	r2, [sp, #8]
  189e88:	5d11      	ldrb	r1, [r2, r4]
  189e8a:	1c3a      	adds	r2, r7, #0
  189e8c:	4219      	tst	r1, r3
  189e8e:	d002      	beq.n	189e96 <draw_char+0x5e>
  189e90:	9b03      	ldr	r3, [sp, #12]
  189e92:	061a      	lsls	r2, r3, #24
  189e94:	0e12      	lsrs	r2, r2, #24
  189e96:	9904      	ldr	r1, [sp, #16]
  189e98:	f7ff fcf3 	bl	189882 <draw_pixel>
  189e9c:	3501      	adds	r5, #1
  189e9e:	2d08      	cmp	r5, #8
  189ea0:	d1ed      	bne.n	189e7e <draw_char+0x46>
  189ea2:	3401      	adds	r4, #1
  189ea4:	78b2      	ldrb	r2, [r6, #2]
  189ea6:	78f3      	ldrb	r3, [r6, #3]
  189ea8:	18d3      	adds	r3, r2, r3
  189eaa:	429c      	cmp	r4, r3
  189eac:	dbe3      	blt.n	189e76 <draw_char+0x3e>
  189eae:	e007      	b.n	189ec0 <draw_char+0x88>
  189eb0:	9a01      	ldr	r2, [sp, #4]
  189eb2:	18a1      	adds	r1, r4, r2
  189eb4:	9800      	ldr	r0, [sp, #0]
  189eb6:	2208      	movs	r2, #8
  189eb8:	1c3b      	adds	r3, r7, #0
  189eba:	f7ff fd7a 	bl	1899b2 <draw_hline>
  189ebe:	3401      	adds	r4, #1
  189ec0:	2c0f      	cmp	r4, #15
  189ec2:	ddf5      	ble.n	189eb0 <draw_char+0x78>
  189ec4:	b005      	add	sp, #20
  189ec6:	bcf0      	pop	{r4, r5, r6, r7}
  189ec8:	bc01      	pop	{r0}
  189eca:	4700      	bx	r0

00189ecc <draw_char_scaled>:
  189ecc:	b5f0      	push	{r4, r5, r6, r7, lr}
  189ece:	b08a      	sub	sp, #40	; 0x28
  189ed0:	1c07      	adds	r7, r0, #0
  189ed2:	9106      	str	r1, [sp, #24]
  189ed4:	0610      	lsls	r0, r2, #24
  189ed6:	0e00      	lsrs	r0, r0, #24
  189ed8:	041a      	lsls	r2, r3, #16
  189eda:	061b      	lsls	r3, r3, #24
  189edc:	0e1b      	lsrs	r3, r3, #24
  189ede:	0219      	lsls	r1, r3, #8
  189ee0:	4319      	orrs	r1, r3
  189ee2:	9107      	str	r1, [sp, #28]
  189ee4:	0e13      	lsrs	r3, r2, #24
  189ee6:	021a      	lsls	r2, r3, #8
  189ee8:	431a      	orrs	r2, r3
  189eea:	9202      	str	r2, [sp, #8]
  189eec:	f007 fcd0 	bl	191890 <get_current_font_data>
  189ef0:	9001      	str	r0, [sp, #4]
  189ef2:	7883      	ldrb	r3, [r0, #2]
  189ef4:	1ac3      	subs	r3, r0, r3
  189ef6:	3304      	adds	r3, #4
  189ef8:	9303      	str	r3, [sp, #12]
  189efa:	980f      	ldr	r0, [sp, #60]	; 0x3c
  189efc:	00c3      	lsls	r3, r0, #3
  189efe:	18fb      	adds	r3, r7, r3
  189f00:	3b01      	subs	r3, #1
  189f02:	9304      	str	r3, [sp, #16]
  189f04:	9906      	ldr	r1, [sp, #24]
  189f06:	2500      	movs	r5, #0
  189f08:	e008      	b.n	189f1c <draw_char_scaled+0x50>
  189f0a:	1e63      	subs	r3, r4, #1
  189f0c:	9a02      	ldr	r2, [sp, #8]
  189f0e:	9200      	str	r2, [sp, #0]
  189f10:	1c38      	adds	r0, r7, #0
  189f12:	9a04      	ldr	r2, [sp, #16]
  189f14:	f7ff ff11 	bl	189d3a <draw_filled_rect>
  189f18:	3501      	adds	r5, #1
  189f1a:	1c21      	adds	r1, r4, #0
  189f1c:	9b10      	ldr	r3, [sp, #64]	; 0x40
  189f1e:	18cc      	adds	r4, r1, r3
  189f20:	9801      	ldr	r0, [sp, #4]
  189f22:	7883      	ldrb	r3, [r0, #2]
  189f24:	429d      	cmp	r5, r3
  189f26:	dbf0      	blt.n	189f0a <draw_char_scaled+0x3e>
  189f28:	9910      	ldr	r1, [sp, #64]	; 0x40
  189f2a:	1c0e      	adds	r6, r1, #0
  189f2c:	436e      	muls	r6, r5
  189f2e:	9a06      	ldr	r2, [sp, #24]
  189f30:	1996      	adds	r6, r2, r6
  189f32:	980f      	ldr	r0, [sp, #60]	; 0x3c
  189f34:	183b      	adds	r3, r7, r0
  189f36:	3b01      	subs	r3, #1
  189f38:	9309      	str	r3, [sp, #36]	; 0x24
  189f3a:	e042      	b.n	189fc2 <draw_char_scaled+0xf6>
  189f3c:	9903      	ldr	r1, [sp, #12]
  189f3e:	5d4b      	ldrb	r3, [r1, r5]
  189f40:	217f      	movs	r1, #127	; 0x7f
  189f42:	438b      	bics	r3, r1
  189f44:	9a10      	ldr	r2, [sp, #64]	; 0x40
  189f46:	3a01      	subs	r2, #1
  189f48:	1992      	adds	r2, r2, r6
  189f4a:	9208      	str	r2, [sp, #32]
  189f4c:	9a09      	ldr	r2, [sp, #36]	; 0x24
  189f4e:	9205      	str	r2, [sp, #20]
  189f50:	2201      	movs	r2, #1
  189f52:	1c14      	adds	r4, r2, #0
  189f54:	9803      	ldr	r0, [sp, #12]
  189f56:	5d41      	ldrb	r1, [r0, r5]
  189f58:	40a1      	lsls	r1, r4
  189f5a:	2080      	movs	r0, #128	; 0x80
  189f5c:	4001      	ands	r1, r0
  189f5e:	4299      	cmp	r1, r3
  189f60:	d016      	beq.n	189f90 <draw_char_scaled+0xc4>
  189f62:	1aa0      	subs	r0, r4, r2
  189f64:	990f      	ldr	r1, [sp, #60]	; 0x3c
  189f66:	4348      	muls	r0, r1
  189f68:	1838      	adds	r0, r7, r0
  189f6a:	9902      	ldr	r1, [sp, #8]
  189f6c:	2b00      	cmp	r3, #0
  189f6e:	d000      	beq.n	189f72 <draw_char_scaled+0xa6>
  189f70:	9907      	ldr	r1, [sp, #28]
  189f72:	9100      	str	r1, [sp, #0]
  189f74:	1c31      	adds	r1, r6, #0
  189f76:	9a05      	ldr	r2, [sp, #20]
  189f78:	9b08      	ldr	r3, [sp, #32]
  189f7a:	f7ff fede 	bl	189d3a <draw_filled_rect>
  189f7e:	9a03      	ldr	r2, [sp, #12]
  189f80:	5d53      	ldrb	r3, [r2, r5]
  189f82:	40a3      	lsls	r3, r4
  189f84:	207f      	movs	r0, #127	; 0x7f
  189f86:	4383      	bics	r3, r0
  189f88:	061b      	lsls	r3, r3, #24
  189f8a:	0e1b      	lsrs	r3, r3, #24
  189f8c:	2201      	movs	r2, #1
  189f8e:	e000      	b.n	189f92 <draw_char_scaled+0xc6>
  189f90:	3201      	adds	r2, #1
  189f92:	3401      	adds	r4, #1
  189f94:	9905      	ldr	r1, [sp, #20]
  189f96:	980f      	ldr	r0, [sp, #60]	; 0x3c
  189f98:	1809      	adds	r1, r1, r0
  189f9a:	9105      	str	r1, [sp, #20]
  189f9c:	2c08      	cmp	r4, #8
  189f9e:	d1d9      	bne.n	189f54 <draw_char_scaled+0x88>
  189fa0:	1aa0      	subs	r0, r4, r2
  189fa2:	990f      	ldr	r1, [sp, #60]	; 0x3c
  189fa4:	4348      	muls	r0, r1
  189fa6:	1838      	adds	r0, r7, r0
  189fa8:	9902      	ldr	r1, [sp, #8]
  189faa:	2b00      	cmp	r3, #0
  189fac:	d000      	beq.n	189fb0 <draw_char_scaled+0xe4>
  189fae:	9907      	ldr	r1, [sp, #28]
  189fb0:	9100      	str	r1, [sp, #0]
  189fb2:	1c31      	adds	r1, r6, #0
  189fb4:	9a04      	ldr	r2, [sp, #16]
  189fb6:	9b08      	ldr	r3, [sp, #32]
  189fb8:	f7ff febf 	bl	189d3a <draw_filled_rect>
  189fbc:	3501      	adds	r5, #1
  189fbe:	9a10      	ldr	r2, [sp, #64]	; 0x40
  189fc0:	18b6      	adds	r6, r6, r2
  189fc2:	9b01      	ldr	r3, [sp, #4]
  189fc4:	789a      	ldrb	r2, [r3, #2]
  189fc6:	78db      	ldrb	r3, [r3, #3]
  189fc8:	18d3      	adds	r3, r2, r3
  189fca:	429d      	cmp	r5, r3
  189fcc:	dbb6      	blt.n	189f3c <draw_char_scaled+0x70>
  189fce:	9810      	ldr	r0, [sp, #64]	; 0x40
  189fd0:	1c04      	adds	r4, r0, #0
  189fd2:	436c      	muls	r4, r5
  189fd4:	9906      	ldr	r1, [sp, #24]
  189fd6:	190c      	adds	r4, r1, r4
  189fd8:	e009      	b.n	189fee <draw_char_scaled+0x122>
  189fda:	9a10      	ldr	r2, [sp, #64]	; 0x40
  189fdc:	1aa1      	subs	r1, r4, r2
  189fde:	1e63      	subs	r3, r4, #1
  189fe0:	9802      	ldr	r0, [sp, #8]
  189fe2:	9000      	str	r0, [sp, #0]
  189fe4:	1c38      	adds	r0, r7, #0
  189fe6:	9a04      	ldr	r2, [sp, #16]
  189fe8:	f7ff fea7 	bl	189d3a <draw_filled_rect>
  189fec:	3501      	adds	r5, #1
  189fee:	9910      	ldr	r1, [sp, #64]	; 0x40
  189ff0:	1864      	adds	r4, r4, r1
  189ff2:	2d0f      	cmp	r5, #15
  189ff4:	ddf1      	ble.n	189fda <draw_char_scaled+0x10e>
  189ff6:	b00a      	add	sp, #40	; 0x28
  189ff8:	bcf0      	pop	{r4, r5, r6, r7}
  189ffa:	bc01      	pop	{r0}
  189ffc:	4700      	bx	r0

00189ffe <draw_string>:
  189ffe:	b5f1      	push	{r0, r4, r5, r6, r7, lr}
  18a000:	1c04      	adds	r4, r0, #0
  18a002:	9100      	str	r1, [sp, #0]
  18a004:	041f      	lsls	r7, r3, #16
  18a006:	0c3f      	lsrs	r7, r7, #16
  18a008:	1c15      	adds	r5, r2, #0
  18a00a:	4e0f      	ldr	r6, [pc, #60]	; (18a048 <draw_string+0x4a>)
  18a00c:	e015      	b.n	18a03a <draw_string+0x3c>
  18a00e:	1c20      	adds	r0, r4, #0
  18a010:	9900      	ldr	r1, [sp, #0]
  18a012:	1c3b      	adds	r3, r7, #0
  18a014:	f7ff ff10 	bl	189e38 <draw_char>
  18a018:	1c23      	adds	r3, r4, #0
  18a01a:	3308      	adds	r3, #8
  18a01c:	6872      	ldr	r2, [r6, #4]
  18a01e:	4293      	cmp	r3, r2
  18a020:	db09      	blt.n	18a036 <draw_string+0x38>
  18a022:	786a      	ldrb	r2, [r5, #1]
  18a024:	2a00      	cmp	r2, #0
  18a026:	d006      	beq.n	18a036 <draw_string+0x38>
  18a028:	1c20      	adds	r0, r4, #0
  18a02a:	9900      	ldr	r1, [sp, #0]
  18a02c:	223e      	movs	r2, #62	; 0x3e
  18a02e:	1c3b      	adds	r3, r7, #0
  18a030:	f7ff ff02 	bl	189e38 <draw_char>
  18a034:	e004      	b.n	18a040 <draw_string+0x42>
  18a036:	3501      	adds	r5, #1
  18a038:	1c1c      	adds	r4, r3, #0
  18a03a:	782a      	ldrb	r2, [r5, #0]
  18a03c:	2a00      	cmp	r2, #0
  18a03e:	d1e6      	bne.n	18a00e <draw_string+0x10>
  18a040:	bcf1      	pop	{r0, r4, r5, r6, r7}
  18a042:	bc01      	pop	{r0}
  18a044:	4700      	bx	r0
  18a046:	46c0      	nop			; (mov r8, r8)
  18a048:	001a4f98 	.word	0x001a4f98

0018a04c <draw_string_scaled>:
  18a04c:	b5ff      	push	{r0, r1, r2, r3, r4, r5, r6, r7, lr}
  18a04e:	1c04      	adds	r4, r0, #0
  18a050:	9102      	str	r1, [sp, #8]
  18a052:	041f      	lsls	r7, r3, #16
  18a054:	0c3f      	lsrs	r7, r7, #16
  18a056:	9909      	ldr	r1, [sp, #36]	; 0x24
  18a058:	00c9      	lsls	r1, r1, #3
  18a05a:	9103      	str	r1, [sp, #12]
  18a05c:	1c15      	adds	r5, r2, #0
  18a05e:	4e13      	ldr	r6, [pc, #76]	; (18a0ac <draw_string_scaled+0x60>)
  18a060:	e01d      	b.n	18a09e <draw_string_scaled+0x52>
  18a062:	9b09      	ldr	r3, [sp, #36]	; 0x24
  18a064:	9300      	str	r3, [sp, #0]
  18a066:	990a      	ldr	r1, [sp, #40]	; 0x28
  18a068:	9101      	str	r1, [sp, #4]
  18a06a:	1c20      	adds	r0, r4, #0
  18a06c:	9902      	ldr	r1, [sp, #8]
  18a06e:	1c3b      	adds	r3, r7, #0
  18a070:	f7ff ff2c 	bl	189ecc <draw_char_scaled>
  18a074:	9b03      	ldr	r3, [sp, #12]
  18a076:	18e4      	adds	r4, r4, r3
  18a078:	6873      	ldr	r3, [r6, #4]
  18a07a:	429c      	cmp	r4, r3
  18a07c:	db0e      	blt.n	18a09c <draw_string_scaled+0x50>
  18a07e:	786b      	ldrb	r3, [r5, #1]
  18a080:	2b00      	cmp	r3, #0
  18a082:	d00b      	beq.n	18a09c <draw_string_scaled+0x50>
  18a084:	9909      	ldr	r1, [sp, #36]	; 0x24
  18a086:	00c8      	lsls	r0, r1, #3
  18a088:	1a20      	subs	r0, r4, r0
  18a08a:	9100      	str	r1, [sp, #0]
  18a08c:	9b0a      	ldr	r3, [sp, #40]	; 0x28
  18a08e:	9301      	str	r3, [sp, #4]
  18a090:	9902      	ldr	r1, [sp, #8]
  18a092:	223e      	movs	r2, #62	; 0x3e
  18a094:	1c3b      	adds	r3, r7, #0
  18a096:	f7ff ff19 	bl	189ecc <draw_char_scaled>
  18a09a:	e003      	b.n	18a0a4 <draw_string_scaled+0x58>
  18a09c:	3501      	adds	r5, #1
  18a09e:	782a      	ldrb	r2, [r5, #0]
  18a0a0:	2a00      	cmp	r2, #0
  18a0a2:	d1de      	bne.n	18a062 <draw_string_scaled+0x16>
  18a0a4:	bcff      	pop	{r0, r1, r2, r3, r4, r5, r6, r7}
  18a0a6:	bc01      	pop	{r0}
  18a0a8:	4700      	bx	r0
  18a0aa:	46c0      	nop			; (mov r8, r8)
  18a0ac:	001a4f98 	.word	0x001a4f98

0018a0b0 <draw_osd_string>:
  18a0b0:	b5f7      	push	{r0, r1, r2, r4, r5, r6, r7, lr}
  18a0b2:	9102      	str	r1, [sp, #8]
  18a0b4:	1c14      	adds	r4, r2, #0
  18a0b6:	1c1a      	adds	r2, r3, #0
  18a0b8:	9b08      	ldr	r3, [sp, #32]
  18a0ba:	041b      	lsls	r3, r3, #16
  18a0bc:	0c1b      	lsrs	r3, r3, #16
  18a0be:	0406      	lsls	r6, r0, #16
  18a0c0:	0c36      	lsrs	r6, r6, #16
  18a0c2:	0c00      	lsrs	r0, r0, #16
  18a0c4:	4684      	mov	ip, r0
  18a0c6:	9809      	ldr	r0, [sp, #36]	; 0x24
  18a0c8:	0405      	lsls	r5, r0, #16
  18a0ca:	0c2d      	lsrs	r5, r5, #16
  18a0cc:	0c07      	lsrs	r7, r0, #16
  18a0ce:	2d00      	cmp	r5, #0
  18a0d0:	d004      	beq.n	18a0dc <draw_osd_string+0x2c>
  18a0d2:	2f00      	cmp	r7, #0
  18a0d4:	d002      	beq.n	18a0dc <draw_osd_string+0x2c>
  18a0d6:	490c      	ldr	r1, [pc, #48]	; (18a108 <draw_osd_string+0x58>)
  18a0d8:	4288      	cmp	r0, r1
  18a0da:	d106      	bne.n	18a0ea <draw_osd_string+0x3a>
  18a0dc:	9d02      	ldr	r5, [sp, #8]
  18a0de:	1970      	adds	r0, r6, r5
  18a0e0:	4666      	mov	r6, ip
  18a0e2:	1931      	adds	r1, r6, r4
  18a0e4:	f7ff ff8b 	bl	189ffe <draw_string>
  18a0e8:	e00a      	b.n	18a100 <draw_osd_string+0x50>
  18a0ea:	9802      	ldr	r0, [sp, #8]
  18a0ec:	1c01      	adds	r1, r0, #0
  18a0ee:	4369      	muls	r1, r5
  18a0f0:	1870      	adds	r0, r6, r1
  18a0f2:	437c      	muls	r4, r7
  18a0f4:	4666      	mov	r6, ip
  18a0f6:	1931      	adds	r1, r6, r4
  18a0f8:	9500      	str	r5, [sp, #0]
  18a0fa:	9701      	str	r7, [sp, #4]
  18a0fc:	f7ff ffa6 	bl	18a04c <draw_string_scaled>
  18a100:	bcf7      	pop	{r0, r1, r2, r4, r5, r6, r7}
  18a102:	bc01      	pop	{r0}
  18a104:	4700      	bx	r0
  18a106:	46c0      	nop			; (mov r8, r8)
  18a108:	00010001 	.word	0x00010001

0018a10c <draw_txt_rect>:
  18a10c:	b571      	push	{r0, r4, r5, r6, lr}
  18a10e:	9d05      	ldr	r5, [sp, #20]
  18a110:	042d      	lsls	r5, r5, #16
  18a112:	0c2d      	lsrs	r5, r5, #16
  18a114:	00c6      	lsls	r6, r0, #3
  18a116:	010c      	lsls	r4, r1, #4
  18a118:	1812      	adds	r2, r2, r0
  18a11a:	00d2      	lsls	r2, r2, #3
  18a11c:	3a01      	subs	r2, #1
  18a11e:	185b      	adds	r3, r3, r1
  18a120:	011b      	lsls	r3, r3, #4
  18a122:	3b01      	subs	r3, #1
  18a124:	9500      	str	r5, [sp, #0]
  18a126:	1c30      	adds	r0, r6, #0
  18a128:	1c21      	adds	r1, r4, #0
  18a12a:	f7ff fd57 	bl	189bdc <draw_rect>
  18a12e:	bc71      	pop	{r0, r4, r5, r6}
  18a130:	bc01      	pop	{r0}
  18a132:	4700      	bx	r0

0018a134 <draw_txt_rect_exp>:
  18a134:	b5f1      	push	{r0, r4, r5, r6, r7, lr}
  18a136:	1c04      	adds	r4, r0, #0
  18a138:	1c0d      	adds	r5, r1, #0
  18a13a:	9e06      	ldr	r6, [sp, #24]
  18a13c:	9f07      	ldr	r7, [sp, #28]
  18a13e:	043f      	lsls	r7, r7, #16
  18a140:	0c3f      	lsrs	r7, r7, #16
  18a142:	00c0      	lsls	r0, r0, #3
  18a144:	1b80      	subs	r0, r0, r6
  18a146:	0109      	lsls	r1, r1, #4
  18a148:	1b89      	subs	r1, r1, r6
  18a14a:	1912      	adds	r2, r2, r4
  18a14c:	00d2      	lsls	r2, r2, #3
  18a14e:	18b2      	adds	r2, r6, r2
  18a150:	3a01      	subs	r2, #1
  18a152:	3e01      	subs	r6, #1
  18a154:	195d      	adds	r5, r3, r5
  18a156:	012d      	lsls	r5, r5, #4
  18a158:	1973      	adds	r3, r6, r5
  18a15a:	9700      	str	r7, [sp, #0]
  18a15c:	f7ff fd3e 	bl	189bdc <draw_rect>
  18a160:	bcf1      	pop	{r0, r4, r5, r6, r7}
  18a162:	bc01      	pop	{r0}
  18a164:	4700      	bx	r0

0018a166 <draw_txt_filled_rect>:
  18a166:	b571      	push	{r0, r4, r5, r6, lr}
  18a168:	9d05      	ldr	r5, [sp, #20]
  18a16a:	042d      	lsls	r5, r5, #16
  18a16c:	0c2d      	lsrs	r5, r5, #16
  18a16e:	00c6      	lsls	r6, r0, #3
  18a170:	010c      	lsls	r4, r1, #4
  18a172:	1812      	adds	r2, r2, r0
  18a174:	00d2      	lsls	r2, r2, #3
  18a176:	3a01      	subs	r2, #1
  18a178:	185b      	adds	r3, r3, r1
  18a17a:	011b      	lsls	r3, r3, #4
  18a17c:	3b01      	subs	r3, #1
  18a17e:	9500      	str	r5, [sp, #0]
  18a180:	1c30      	adds	r0, r6, #0
  18a182:	1c21      	adds	r1, r4, #0
  18a184:	f7ff fdd9 	bl	189d3a <draw_filled_rect>
  18a188:	bc71      	pop	{r0, r4, r5, r6}
  18a18a:	bc01      	pop	{r0}
  18a18c:	4700      	bx	r0

0018a18e <draw_txt_filled_rect_exp>:
  18a18e:	b5f1      	push	{r0, r4, r5, r6, r7, lr}
  18a190:	1c04      	adds	r4, r0, #0
  18a192:	1c0d      	adds	r5, r1, #0
  18a194:	9e06      	ldr	r6, [sp, #24]
  18a196:	9f07      	ldr	r7, [sp, #28]
  18a198:	043f      	lsls	r7, r7, #16
  18a19a:	0c3f      	lsrs	r7, r7, #16
  18a19c:	00c0      	lsls	r0, r0, #3
  18a19e:	1b80      	subs	r0, r0, r6
  18a1a0:	0109      	lsls	r1, r1, #4
  18a1a2:	1b89      	subs	r1, r1, r6
  18a1a4:	1912      	adds	r2, r2, r4
  18a1a6:	00d2      	lsls	r2, r2, #3
  18a1a8:	18b2      	adds	r2, r6, r2
  18a1aa:	3a01      	subs	r2, #1
  18a1ac:	3e01      	subs	r6, #1
  18a1ae:	195d      	adds	r5, r3, r5
  18a1b0:	012d      	lsls	r5, r5, #4
  18a1b2:	1973      	adds	r3, r6, r5
  18a1b4:	9700      	str	r7, [sp, #0]
  18a1b6:	f7ff fdc0 	bl	189d3a <draw_filled_rect>
  18a1ba:	bcf1      	pop	{r0, r4, r5, r6, r7}
  18a1bc:	bc01      	pop	{r0}
  18a1be:	4700      	bx	r0

0018a1c0 <draw_txt_string>:
  18a1c0:	b500      	push	{lr}
  18a1c2:	041b      	lsls	r3, r3, #16
  18a1c4:	0c1b      	lsrs	r3, r3, #16
  18a1c6:	00c0      	lsls	r0, r0, #3
  18a1c8:	0109      	lsls	r1, r1, #4
  18a1ca:	f7ff ff18 	bl	189ffe <draw_string>
  18a1ce:	bc01      	pop	{r0}
  18a1d0:	4700      	bx	r0

0018a1d2 <draw_txt_char>:
  18a1d2:	b500      	push	{lr}
  18a1d4:	0612      	lsls	r2, r2, #24
  18a1d6:	0e12      	lsrs	r2, r2, #24
  18a1d8:	041b      	lsls	r3, r3, #16
  18a1da:	0c1b      	lsrs	r3, r3, #16
  18a1dc:	00c0      	lsls	r0, r0, #3
  18a1de:	0109      	lsls	r1, r1, #4
  18a1e0:	f7ff fe2a 	bl	189e38 <draw_char>
  18a1e4:	bc01      	pop	{r0}
  18a1e6:	4700      	bx	r0

0018a1e8 <draw_circle>:
  18a1e8:	b5f0      	push	{r4, r5, r6, r7, lr}
  18a1ea:	b087      	sub	sp, #28
  18a1ec:	9002      	str	r0, [sp, #8]
  18a1ee:	9103      	str	r1, [sp, #12]
  18a1f0:	041d      	lsls	r5, r3, #16
  18a1f2:	0c2d      	lsrs	r5, r5, #16
  18a1f4:	1c16      	adds	r6, r2, #0
  18a1f6:	0053      	lsls	r3, r2, #1
  18a1f8:	2203      	movs	r2, #3
  18a1fa:	1ad2      	subs	r2, r2, r3
  18a1fc:	9200      	str	r2, [sp, #0]
  18a1fe:	2700      	movs	r7, #0
  18a200:	9a02      	ldr	r2, [sp, #8]
  18a202:	18ba      	adds	r2, r7, r2
  18a204:	9201      	str	r2, [sp, #4]
  18a206:	9b03      	ldr	r3, [sp, #12]
  18a208:	199b      	adds	r3, r3, r6
  18a20a:	9304      	str	r3, [sp, #16]
  18a20c:	1c10      	adds	r0, r2, #0
  18a20e:	1c19      	adds	r1, r3, #0
  18a210:	1c2a      	adds	r2, r5, #0
  18a212:	f7ff fb36 	bl	189882 <draw_pixel>
  18a216:	9a02      	ldr	r2, [sp, #8]
  18a218:	1994      	adds	r4, r2, r6
  18a21a:	9b03      	ldr	r3, [sp, #12]
  18a21c:	18fb      	adds	r3, r7, r3
  18a21e:	9305      	str	r3, [sp, #20]
  18a220:	1c20      	adds	r0, r4, #0
  18a222:	1c19      	adds	r1, r3, #0
  18a224:	1c2a      	adds	r2, r5, #0
  18a226:	f7ff fb2c 	bl	189882 <draw_pixel>
  18a22a:	9a03      	ldr	r2, [sp, #12]
  18a22c:	1bd2      	subs	r2, r2, r7
  18a22e:	9206      	str	r2, [sp, #24]
  18a230:	1c20      	adds	r0, r4, #0
  18a232:	1c11      	adds	r1, r2, #0
  18a234:	1c2a      	adds	r2, r5, #0
  18a236:	f7ff fb24 	bl	189882 <draw_pixel>
  18a23a:	9b03      	ldr	r3, [sp, #12]
  18a23c:	1b9c      	subs	r4, r3, r6
  18a23e:	9801      	ldr	r0, [sp, #4]
  18a240:	1c21      	adds	r1, r4, #0
  18a242:	1c2a      	adds	r2, r5, #0
  18a244:	f7ff fb1d 	bl	189882 <draw_pixel>
  18a248:	9a02      	ldr	r2, [sp, #8]
  18a24a:	1bd2      	subs	r2, r2, r7
  18a24c:	9201      	str	r2, [sp, #4]
  18a24e:	1c10      	adds	r0, r2, #0
  18a250:	1c21      	adds	r1, r4, #0
  18a252:	1c2a      	adds	r2, r5, #0
  18a254:	f7ff fb15 	bl	189882 <draw_pixel>
  18a258:	9b02      	ldr	r3, [sp, #8]
  18a25a:	1b9c      	subs	r4, r3, r6
  18a25c:	1c20      	adds	r0, r4, #0
  18a25e:	9906      	ldr	r1, [sp, #24]
  18a260:	1c2a      	adds	r2, r5, #0
  18a262:	f7ff fb0e 	bl	189882 <draw_pixel>
  18a266:	1c20      	adds	r0, r4, #0
  18a268:	9905      	ldr	r1, [sp, #20]
  18a26a:	1c2a      	adds	r2, r5, #0
  18a26c:	f7ff fb09 	bl	189882 <draw_pixel>
  18a270:	9801      	ldr	r0, [sp, #4]
  18a272:	9904      	ldr	r1, [sp, #16]
  18a274:	1c2a      	adds	r2, r5, #0
  18a276:	f7ff fb04 	bl	189882 <draw_pixel>
  18a27a:	3701      	adds	r7, #1
  18a27c:	9a00      	ldr	r2, [sp, #0]
  18a27e:	2a00      	cmp	r2, #0
  18a280:	da02      	bge.n	18a288 <draw_circle+0xa0>
  18a282:	00bb      	lsls	r3, r7, #2
  18a284:	3306      	adds	r3, #6
  18a286:	e004      	b.n	18a292 <draw_circle+0xaa>
  18a288:	3e01      	subs	r6, #1
  18a28a:	1bbb      	subs	r3, r7, r6
  18a28c:	009b      	lsls	r3, r3, #2
  18a28e:	330a      	adds	r3, #10
  18a290:	9a00      	ldr	r2, [sp, #0]
  18a292:	18d2      	adds	r2, r2, r3
  18a294:	9200      	str	r2, [sp, #0]
  18a296:	42b7      	cmp	r7, r6
  18a298:	ddb2      	ble.n	18a200 <draw_circle+0x18>
  18a29a:	b007      	add	sp, #28
  18a29c:	bcf0      	pop	{r4, r5, r6, r7}
  18a29e:	bc01      	pop	{r0}
  18a2a0:	4700      	bx	r0

0018a2a2 <draw_ellipse>:
  18a2a2:	b5f0      	push	{r4, r5, r6, r7, lr}
  18a2a4:	b08e      	sub	sp, #56	; 0x38
  18a2a6:	9008      	str	r0, [sp, #32]
  18a2a8:	9109      	str	r1, [sp, #36]	; 0x24
  18a2aa:	9305      	str	r3, [sp, #20]
  18a2ac:	9d13      	ldr	r5, [sp, #76]	; 0x4c
  18a2ae:	042d      	lsls	r5, r5, #16
  18a2b0:	0c2d      	lsrs	r5, r5, #16
  18a2b2:	1c11      	adds	r1, r2, #0
  18a2b4:	4351      	muls	r1, r2
  18a2b6:	9104      	str	r1, [sp, #16]
  18a2b8:	004b      	lsls	r3, r1, #1
  18a2ba:	9306      	str	r3, [sp, #24]
  18a2bc:	9b05      	ldr	r3, [sp, #20]
  18a2be:	1c19      	adds	r1, r3, #0
  18a2c0:	4359      	muls	r1, r3
  18a2c2:	910b      	str	r1, [sp, #44]	; 0x2c
  18a2c4:	0049      	lsls	r1, r1, #1
  18a2c6:	9107      	str	r1, [sp, #28]
  18a2c8:	1c16      	adds	r6, r2, #0
  18a2ca:	0053      	lsls	r3, r2, #1
  18a2cc:	2201      	movs	r2, #1
  18a2ce:	1ad3      	subs	r3, r2, r3
  18a2d0:	990b      	ldr	r1, [sp, #44]	; 0x2c
  18a2d2:	1c0a      	adds	r2, r1, #0
  18a2d4:	435a      	muls	r2, r3
  18a2d6:	9202      	str	r2, [sp, #8]
  18a2d8:	9b07      	ldr	r3, [sp, #28]
  18a2da:	1c32      	adds	r2, r6, #0
  18a2dc:	435a      	muls	r2, r3
  18a2de:	9203      	str	r2, [sp, #12]
  18a2e0:	2700      	movs	r7, #0
  18a2e2:	9700      	str	r7, [sp, #0]
  18a2e4:	9701      	str	r7, [sp, #4]
  18a2e6:	e036      	b.n	18a356 <draw_ellipse+0xb4>
  18a2e8:	9908      	ldr	r1, [sp, #32]
  18a2ea:	1b8c      	subs	r4, r1, r6
  18a2ec:	9a09      	ldr	r2, [sp, #36]	; 0x24
  18a2ee:	9b01      	ldr	r3, [sp, #4]
  18a2f0:	1ad2      	subs	r2, r2, r3
  18a2f2:	920a      	str	r2, [sp, #40]	; 0x28
  18a2f4:	1c20      	adds	r0, r4, #0
  18a2f6:	1c11      	adds	r1, r2, #0
  18a2f8:	1c2a      	adds	r2, r5, #0
  18a2fa:	f7ff fac2 	bl	189882 <draw_pixel>
  18a2fe:	9901      	ldr	r1, [sp, #4]
  18a300:	9a09      	ldr	r2, [sp, #36]	; 0x24
  18a302:	1889      	adds	r1, r1, r2
  18a304:	910c      	str	r1, [sp, #48]	; 0x30
  18a306:	1c20      	adds	r0, r4, #0
  18a308:	1c2a      	adds	r2, r5, #0
  18a30a:	f7ff faba 	bl	189882 <draw_pixel>
  18a30e:	9b08      	ldr	r3, [sp, #32]
  18a310:	199c      	adds	r4, r3, r6
  18a312:	1c20      	adds	r0, r4, #0
  18a314:	990a      	ldr	r1, [sp, #40]	; 0x28
  18a316:	1c2a      	adds	r2, r5, #0
  18a318:	f7ff fab3 	bl	189882 <draw_pixel>
  18a31c:	1c20      	adds	r0, r4, #0
  18a31e:	990c      	ldr	r1, [sp, #48]	; 0x30
  18a320:	1c2a      	adds	r2, r5, #0
  18a322:	f7ff faae 	bl	189882 <draw_pixel>
  18a326:	9901      	ldr	r1, [sp, #4]
  18a328:	3101      	adds	r1, #1
  18a32a:	9101      	str	r1, [sp, #4]
  18a32c:	9a06      	ldr	r2, [sp, #24]
  18a32e:	18bf      	adds	r7, r7, r2
  18a330:	9b00      	ldr	r3, [sp, #0]
  18a332:	990d      	ldr	r1, [sp, #52]	; 0x34
  18a334:	185b      	adds	r3, r3, r1
  18a336:	9300      	str	r3, [sp, #0]
  18a338:	005b      	lsls	r3, r3, #1
  18a33a:	9a02      	ldr	r2, [sp, #8]
  18a33c:	189b      	adds	r3, r3, r2
  18a33e:	2b00      	cmp	r3, #0
  18a340:	dd09      	ble.n	18a356 <draw_ellipse+0xb4>
  18a342:	3e01      	subs	r6, #1
  18a344:	9b03      	ldr	r3, [sp, #12]
  18a346:	9907      	ldr	r1, [sp, #28]
  18a348:	1a5b      	subs	r3, r3, r1
  18a34a:	9303      	str	r3, [sp, #12]
  18a34c:	9b00      	ldr	r3, [sp, #0]
  18a34e:	189b      	adds	r3, r3, r2
  18a350:	9300      	str	r3, [sp, #0]
  18a352:	1852      	adds	r2, r2, r1
  18a354:	9202      	str	r2, [sp, #8]
  18a356:	9904      	ldr	r1, [sp, #16]
  18a358:	1879      	adds	r1, r7, r1
  18a35a:	910d      	str	r1, [sp, #52]	; 0x34
  18a35c:	9a03      	ldr	r2, [sp, #12]
  18a35e:	42ba      	cmp	r2, r7
  18a360:	dac2      	bge.n	18a2e8 <draw_ellipse+0x46>
  18a362:	9e05      	ldr	r6, [sp, #20]
  18a364:	0073      	lsls	r3, r6, #1
  18a366:	2201      	movs	r2, #1
  18a368:	1ad3      	subs	r3, r2, r3
  18a36a:	9a04      	ldr	r2, [sp, #16]
  18a36c:	1c11      	adds	r1, r2, #0
  18a36e:	4359      	muls	r1, r3
  18a370:	9102      	str	r1, [sp, #8]
  18a372:	9906      	ldr	r1, [sp, #24]
  18a374:	1c33      	adds	r3, r6, #0
  18a376:	434b      	muls	r3, r1
  18a378:	9303      	str	r3, [sp, #12]
  18a37a:	2700      	movs	r7, #0
  18a37c:	9700      	str	r7, [sp, #0]
  18a37e:	9701      	str	r7, [sp, #4]
  18a380:	e036      	b.n	18a3f0 <draw_ellipse+0x14e>
  18a382:	9a08      	ldr	r2, [sp, #32]
  18a384:	9b01      	ldr	r3, [sp, #4]
  18a386:	1ad4      	subs	r4, r2, r3
  18a388:	9909      	ldr	r1, [sp, #36]	; 0x24
  18a38a:	1b89      	subs	r1, r1, r6
  18a38c:	9104      	str	r1, [sp, #16]
  18a38e:	1c20      	adds	r0, r4, #0
  18a390:	1c2a      	adds	r2, r5, #0
  18a392:	f7ff fa76 	bl	189882 <draw_pixel>
  18a396:	9a09      	ldr	r2, [sp, #36]	; 0x24
  18a398:	1992      	adds	r2, r2, r6
  18a39a:	9205      	str	r2, [sp, #20]
  18a39c:	1c20      	adds	r0, r4, #0
  18a39e:	1c11      	adds	r1, r2, #0
